Microchip MPLAB XC8 Compiler V1.41 ()

Linker command line:

-W-3 --edf=C:\Program Files (x86)\Microchip\xc8\v1.41\dat\en_msgs.txt -cs \
  -h+dist/default/debug\cs600-redo.X.debug.sym \
  --cmf=dist/default/debug\cs600-redo.X.debug.cmf -z -Q18F86J93 \
  -oC:\Users\ADMINI~1\AppData\Local\Temp\sd30.2 \
  -Mdist/default/debug/cs600-redo.X.debug.map -E1 -ver=XC8 --acfsm=1493 \
  -ASTACK=0600h-0f53h -pstack=STACK -ACODE=00h-0F3FFh -ACONST=00h-0F3FFh \
  -ASMALLCONST=01000h-010FFhx228 -AMEDIUMCONST=01000h-0F3FFh \
  -ACOMRAM=01h-05Fh -AABS1=00h-0F53h -ABIGRAM=01h-0F53h \
  -ARAM=060h-0FFh,0100h-01FFhx14,0F00h-0F53h -ABANK0=060h-0FFh \
  -ABANK1=0100h-01FFh -ABANK2=0200h-02FFh -ABANK3=0300h-03FFh \
  -ABANK4=0400h-04FFh -ABANK5=0500h-05FFh -ABANK6=0600h-06FFh \
  -ABANK7=0700h-07FFh -ABANK8=0800h-08FFh -ABANK9=0900h-09FFh \
  -ABANK10=0A00h-0AFFh -ABANK11=0B00h-0BFFh -ABANK12=0C00h-0CFFh \
  -ABANK13=0D00h-0DFFh -ABANK14=0E00h-0EFFh -ABANK15=0F00h-0F53h \
  -ASFR=0F54h-0F5Fh,0F60h-0FFCh \
  -preset_vec=00h,intcode=08h,intcodelo=018h,powerup,init -pramtop=01000h \
  -psmallconst=SMALLCONST -pmediumconst=MEDIUMCONST -pconst=CONST \
  -AFARRAM=00h-00h -ACONFIG=0FFF8h-0FFFFh -pconfig=CONFIG \
  -pjflash_buffer=0F800h \
  -prdata=COMRAM,nvrram=COMRAM,nvbit=COMRAM,rbss=COMRAM,rbit=COMRAM \
  -pfarbss=FARRAM,fardata=FARRAM,nvFARRAM=FARRAM \
  -pintsave_regs=BIGRAM,bigbss=BIGRAM,bigdata=BIGRAM -pbss=RAM \
  -pidata=CODE,irdata=CODE,ibigdata=CODE,ifardata=CODE -prparam=COMRAM \
  C:\Users\ADMINI~1\AppData\Local\Temp\sd30.obj \
  dist/default/debug\cs600-redo.X.debug.obj 

Object code version is 3.11

Machine type is 18F86J93

Call graph: (short form)




                Name                               Link     Load   Length Selector   Space Scale
C:\Users\ADMINI~1\AppData\Local\Temp\sd30.obj
                init                                 D8       D8        4        C       0
                reset_vec                             0        0        6        0       0
                config                             FFF8     FFF8        6     FFF8       0
dist/default/debug\cs600-redo.X.debug.obj
                intcodelo                            18       18       C0        C       0
                intcode                               8        8        6        4       0
                temp                                 40       40        1        1       1
                mediumconst                        ECB0     ECB0      750     7658       0
                text223                            A3F6     A3F6        2     51E2       0
                text222                            A238     A238       1C        C       0
                intcode_body                       6E7C     6E7C       C8        C       0
                text220                            A3F4     A3F4        2     51E2       0
                text219                            A21C     A21C       1C        C       0
                text217                            792C     792C       A4        C       0
                text216                            9A54     9A54       3A        C       0
                text215                            8598     8598       7C        C       0
                text214                            9BA6     9BA6       38        C       0
                text213                            8F76     8F76       64        C       0
                text212                            95EA     95EA       52        C       0
                text211                            A188     A188       20        C       0
                text210                            9C80     9C80       36        C       0
                text209                            9494     9494       58        C       0
                text208                            87F0     87F0       74        C       0
                text207                            9B6E     9B6E       38        C       0
                text206                            4570     4570      1B8        C       0
                text205                            A04A     A04A       26        C       0
                text204                            5BDE     5BDE      116        C       0
                text203                            9C4A     9C4A       36        C       0
                text202                            3C72     3C72      1DE        C       0
                text201                            7B12     7B12       9E        C       0
                text200                            8F12     8F12       64        C       0
                text199                            97C6     97C6       4E        C       0
                text198                            828A     828A       8C        C       0
                text197                            5878     5878      12A        C       0
                text196                            41F0     41F0      1C4        C       0
                text195                            574E     574E      12A        C       0
                text194                            2352     2352      3C0        C       0
                text193                            1610     1610      4A6        C       0
                text192                            5CF4     5CF4      10C        C       0
                text191                            4022     4022      1CE        C       0
                text190                            3A6E     3A6E      204        C       0
                text189                            4E64     4E64      164        C       0
                text188                            A254     A254       1A        C       0
                text187                            938A     938A       5A        C       0
                text186                            849E     849E       7E        C       0
                text185                            53B8     53B8      136        C       0
                text184                            48B8     48B8      172        C       0
                text183                            A3A8     A3A8        E        C       0
                text182                            A39A     A39A        E        C       0
                text181                            A346     A346       14        C       0
                text180                            1168     1168      4A8        C       0
                text179                            4728     4728      190        C       0
                text178                            309E     309E      2BA        C       0
                text177                            9B36     9B36       38        C       0
                text176                            1F2A     1F2A      428        C       0
                text175                            3358     3358      278        C       0
                text174                              DC       DC      6A8        C       0
                text173                            5F08     5F08      108        C       0
                text172                            5AC4     5AC4      11A        C       0
                text171                            877A     877A       76        C       0
                text170                            1AB6     1AB6      474        C       0
                text169                             784      784      512        C       0
                text168                            A146     A146       22        C       0
                text167                            59A2     59A2      122        C       0
                text166                            A332     A332       14        C       0
                text165                            A1C6     A1C6       1E        C       0
                text164                            A200     A200       1C        C       0
                text163                            A124     A124       22        C       0
                text162                            851C     851C       7C        C       0
                text161                            A31E     A31E       14        C       0
                text160                            A1A8     A1A8       1E        C       0
                text159                            94EC     94EC       56        C       0
                text158                            6A8E     6A8E       CE        C       0
                text157                            9E9A     9E9A       30        C       0
                text156                            7188     7188       BE        C       0
                text155                            6DB4     6DB4       C8        C       0
                text154                            9E6A     9E6A       30        C       0
                text153                            91C0     91C0       5E        C       0
                text152                            9100     9100       62        C       0
                text151                            79D0     79D0       A2        C       0
                text150                            4FC8     4FC8      15E        C       0
                text149                            8B70     8B70       6C        C       0
                text148                            9E3A     9E3A       30        C       0
                text147                            9E0A     9E0A       30        C       0
                text146                            9DDA     9DDA       30        C       0
                text145                            9DAA     9DAA       30        C       0
                text144                            9D7A     9D7A       30        C       0
                text143                            9D4A     9D4A       30        C       0
                text142                            8B04     8B04       6C        C       0
                text141                            816C     816C       90        C       0
                text140                            80DC     80DC       90        C       0
                text139                            804C     804C       90        C       0
                text138                            7FBC     7FBC       90        C       0
                text137                            7F2C     7F2C       90        C       0
                text136                            7E9C     7E9C       90        C       0
                text135                            7E0C     7E0C       90        C       0
                text134                            7D7C     7D7C       90        C       0
                text133                            9162     9162       5E        C       0
                text132                            7CE4     7CE4       98        C       0
                text131                            8A96     8A96       6E        C       0
                text130                            9330     9330       5A        C       0
                text129                            69B6     69B6       D8        C       0
                text128                            9D1A     9D1A       30        C       0
                text127                            35D0     35D0      25A        C       0
                text126                            9F26     9F26       2E        C       0
                text125                            9778     9778       4E        C       0
                text124                            6522     6522       FC        C       0
                text123                            67F8     67F8       E0        C       0
                text122                            9EF8     9EF8       2E        C       0
                text121                            7008     7008       C2        C       0
                text120                            6F44     6F44       C4        C       0
                text119                            7246     7246       BC        C       0
                text118                            6010     6010      106        C       0
                text117                             C96      C96      4D2        C       0
                text116                            943C     943C       58        C       0
                text115                            9596     9596       54        C       0
                text114                            8E48     8E48       66        C       0
                text113                            8DE2     8DE2       66        C       0
                text112                            8316     8316       8A        C       0
                text111                            8D7C     8D7C       66        C       0
                text110                            9542     9542       54        C       0
                text109                            8D16     8D16       66        C       0
                text108                            868C     868C       78        C       0
                text107                            8A28     8A28       6E        C       0
                text106                            989E     989E       42        C       0
                text105                            5282     5282      136        C       0
                text104                            382A     382A      244        C       0
                text103                            8EAE     8EAE       64        C       0
                text102                            9ECA     9ECA       2E        C       0
                text101                            89B8     89B8       70        C       0
                text100                            81FC     81FC       8E        C       0
                text99                             9FD2     9FD2       2A        C       0
                text98                             6CEC     6CEC       C8        C       0
                text97                             9FA8     9FA8       2A        C       0
                text96                             561E     561E      130        C       0
                text95                             6716     6716       E2        C       0
                text94                             8704     8704       76        C       0
                text93                             768A     768A       AE        C       0
                text92                             9F7E     9F7E       2A        C       0
                text91                             4B94     4B94      16A        C       0
                text90                             43B4     43B4      1BC        C       0
                text89                             9814     9814       46        C       0
                text88                             A024     A024       26        C       0
                text87                             A100     A100       24        C       0
                text86                             A0DC     A0DC       24        C       0
                text85                             6422     6422      100        C       0
                text84                             9F54     9F54       2A        C       0
                text83                             2DDA     2DDA      2C4        C       0
                text82                             8420     8420       7E        C       0
                text81                             3E50     3E50      1D2        C       0
                text80                             A0B8     A0B8       24        C       0
                text79                             8BDC     8BDC       6A        C       0
                text78                             4CFE     4CFE      166        C       0
                text77                             4A2A     4A2A      16A        C       0
                text76                             972A     972A       4E        C       0
                text75                             A3DC     A3DC        C     51E2       0
                text74                             A3F2     A3F2        2     51E2       0
                text73                             985A     985A       44        C       0
                text72                             A094     A094       24        C       0
                text71                             A1E4     A1E4       1C        C       0
                text70                             9CEA     9CEA       30        C       0
                text69                             A070     A070       24        C       0
                text68                             5126     5126      15C        C       0
                text67                             A308     A308       16        C       0
                text66                             631E     631E      104        C       0
                text65                             999E     999E       3E        C       0
                text64                             77E0     77E0       A8        C       0
                text63                             2712     2712      36A        C       0
                text62                             7302     7302       BA        C       0
                text61                             621A     621A      104        C       0
                text60                             752C     752C       B0        C       0
                text59                             7738     7738       A8        C       0
                text58                             54EE     54EE      130        C       0
                text57                             96DC     96DC       4E        C       0
                text56                             8948     8948       70        C       0
                text55                             8CAE     8CAE       68        C       0
                text54                             8C46     8C46       68        C       0
                text53                             9A18     9A18       3C        C       0
                text52                             5E00     5E00      108        C       0
                text51                             6116     6116      104        C       0
                text50                             2A7C     2A7C      35E        C       0
                text49                             909E     909E       62        C       0
                text48                             83A0     83A0       80        C       0
                text47                             70CA     70CA       BE        C       0
                text46                             6C24     6C24       C8        C       0
                text45                             7BB0     7BB0       9C        C       0
                text44                             99DC     99DC       3C        C       0
                text43                             8614     8614       78        C       0
                text42                             88D6     88D6       72        C       0
                text41                             A35A     A35A       12        C       0
                text40                             6B5C     6B5C       C8        C       0
                text39                             9920     9920       40        C       0
                text38                             93E4     93E4       58        C       0
                text37                             968C     968C       50        C       0
                text36                             A168     A168       20        C       0
                text35                             7474     7474       B8        C       0
                text34                             927A     927A       5C        C       0
                text33                             903C     903C       62        C       0
                text32                             661E     661E       F8        C       0
                text31                             A2F2     A2F2       16        C       0
                text30                             9C14     9C14       36        C       0
                text29                             68D8     68D8       DE        C       0
                text28                             A2DC     A2DC       16        C       0
                text27                             A2C6     A2C6       16        C       0
                text26                             9AFE     9AFE       38        C       0
                text25                             9CB6     9CB6       34        C       0
                text24                             A2B0     A2B0       16        C       0
                text23                             9FFC     9FFC       28        C       0
                text22                             A29A     A29A       16        C       0
                text21                             8864     8864       72        C       0
                text20                             9AC6     9AC6       38        C       0
                text19                             A284     A284       16        C       0
                text18                             98E0     98E0       40        C       0
                text17                             A26E     A26E       16        C       0
                text16                             75DC     75DC       AE        C       0
                text15                             921E     921E       5C        C       0
                text14                             963C     963C       50        C       0
                text13                             7A72     7A72       A0        C       0
                text12                             A3E8     A3E8        A     51E2       0
                text11                             9A8E     9A8E       38        C       0
                text10                             A38C     A38C        E        C       0
                text9                              A3D0     A3D0        C     51E2       0
                text8                              A3C4     A3C4        C     51E2       0
                text7                              73BC     73BC       B8        C       0
                text6                              9960     9960       3E        C       0
                text5                              A37C     A37C       10        C       0
                text4                              A36C     A36C       10        C       0
                text3                              92D6     92D6       5A        C       0
                text2                              9BDE     9BDE       36        C       0
                text1                              7C4C     7C4C       98        C       0
                text0                              8FDA     8FDA       62        C       0
                cstackCOMRAM                          1        1       20        1       1
                cstackBANK0                          60       60       87       60       1
                cstackBANK1                         1FB      1FB        5      100       1
                cstackBANK3                         3CA      3CA       19      300       1
                bssBANK5                            500      500      100      500       1
                bssBANK4                            400      400       A2      400       1
                bssBANK3                            300      300       CA      300       1
                bssBANK2                            200      200      100      200       1
                dataBANK1                           1EE      1EE        D      100       1
                bssBANK1                            100      100       EE      100       1
                dataBANK0                            FF       FF        1       60       1
                bssBANK0                             E7       E7       18       60       1
                bssCOMRAM                            21       21       1F        1       1
                cinit                              7888     7888       A4        C       0
                idataBANK1                         A3B6     A3B6        D        C       0
                idataBANK0                         A3F8     A3F8        1     51E2       0

TOTAL           Name                               Link     Load   Length     Space
        CLASS   STACK          

        CLASS   CODE           
                intcodelo                            18       18       C0         0
                intcode                               8        8        6         0
                init                                 D8       D8        4         0
                reset_vec                             0        0        6         0
                text223                            A3F6     A3F6        2         0
                text222                            A238     A238       1C         0
                intcode_body                       6E7C     6E7C       C8         0
                text220                            A3F4     A3F4        2         0
                text219                            A21C     A21C       1C         0
                text217                            792C     792C       A4         0
                text216                            9A54     9A54       3A         0
                text215                            8598     8598       7C         0
                text214                            9BA6     9BA6       38         0
                text213                            8F76     8F76       64         0
                text212                            95EA     95EA       52         0
                text211                            A188     A188       20         0
                text210                            9C80     9C80       36         0
                text209                            9494     9494       58         0
                text208                            87F0     87F0       74         0
                text207                            9B6E     9B6E       38         0
                text206                            4570     4570      1B8         0
                text205                            A04A     A04A       26         0
                text204                            5BDE     5BDE      116         0
                text203                            9C4A     9C4A       36         0
                text202                            3C72     3C72      1DE         0
                text201                            7B12     7B12       9E         0
                text200                            8F12     8F12       64         0
                text199                            97C6     97C6       4E         0
                text198                            828A     828A       8C         0
                text197                            5878     5878      12A         0
                text196                            41F0     41F0      1C4         0
                text195                            574E     574E      12A         0
                text194                            2352     2352      3C0         0
                text193                            1610     1610      4A6         0
                text192                            5CF4     5CF4      10C         0
                text191                            4022     4022      1CE         0
                text190                            3A6E     3A6E      204         0
                text189                            4E64     4E64      164         0
                text188                            A254     A254       1A         0
                text187                            938A     938A       5A         0
                text186                            849E     849E       7E         0
                text185                            53B8     53B8      136         0
                text184                            48B8     48B8      172         0
                text183                            A3A8     A3A8        E         0
                text182                            A39A     A39A        E         0
                text181                            A346     A346       14         0
                text180                            1168     1168      4A8         0
                text179                            4728     4728      190         0
                text178                            309E     309E      2BA         0
                text177                            9B36     9B36       38         0
                text176                            1F2A     1F2A      428         0
                text175                            3358     3358      278         0
                text174                              DC       DC      6A8         0
                text173                            5F08     5F08      108         0
                text172                            5AC4     5AC4      11A         0
                text171                            877A     877A       76         0
                text170                            1AB6     1AB6      474         0
                text169                             784      784      512         0
                text168                            A146     A146       22         0
                text167                            59A2     59A2      122         0
                text166                            A332     A332       14         0
                text165                            A1C6     A1C6       1E         0
                text164                            A200     A200       1C         0
                text163                            A124     A124       22         0
                text162                            851C     851C       7C         0
                text161                            A31E     A31E       14         0
                text160                            A1A8     A1A8       1E         0
                text159                            94EC     94EC       56         0
                text158                            6A8E     6A8E       CE         0
                text157                            9E9A     9E9A       30         0
                text156                            7188     7188       BE         0
                text155                            6DB4     6DB4       C8         0
                text154                            9E6A     9E6A       30         0
                text153                            91C0     91C0       5E         0
                text152                            9100     9100       62         0
                text151                            79D0     79D0       A2         0
                text150                            4FC8     4FC8      15E         0
                text149                            8B70     8B70       6C         0
                text148                            9E3A     9E3A       30         0
                text147                            9E0A     9E0A       30         0
                text146                            9DDA     9DDA       30         0
                text145                            9DAA     9DAA       30         0
                text144                            9D7A     9D7A       30         0
                text143                            9D4A     9D4A       30         0
                text142                            8B04     8B04       6C         0
                text141                            816C     816C       90         0
                text140                            80DC     80DC       90         0
                text139                            804C     804C       90         0
                text138                            7FBC     7FBC       90         0
                text137                            7F2C     7F2C       90         0
                text136                            7E9C     7E9C       90         0
                text135                            7E0C     7E0C       90         0
                text134                            7D7C     7D7C       90         0
                text133                            9162     9162       5E         0
                text132                            7CE4     7CE4       98         0
                text131                            8A96     8A96       6E         0
                text130                            9330     9330       5A         0
                text129                            69B6     69B6       D8         0
                text128                            9D1A     9D1A       30         0
                text127                            35D0     35D0      25A         0
                text126                            9F26     9F26       2E         0
                text125                            9778     9778       4E         0
                text124                            6522     6522       FC         0
                text123                            67F8     67F8       E0         0
                text122                            9EF8     9EF8       2E         0
                text121                            7008     7008       C2         0
                text120                            6F44     6F44       C4         0
                text119                            7246     7246       BC         0
                text118                            6010     6010      106         0
                text117                             C96      C96      4D2         0
                text116                            943C     943C       58         0
                text115                            9596     9596       54         0
                text114                            8E48     8E48       66         0
                text113                            8DE2     8DE2       66         0
                text112                            8316     8316       8A         0
                text111                            8D7C     8D7C       66         0
                text110                            9542     9542       54         0
                text109                            8D16     8D16       66         0
                text108                            868C     868C       78         0
                text107                            8A28     8A28       6E         0
                text106                            989E     989E       42         0
                text105                            5282     5282      136         0
                text104                            382A     382A      244         0
                text103                            8EAE     8EAE       64         0
                text102                            9ECA     9ECA       2E         0
                text101                            89B8     89B8       70         0
                text100                            81FC     81FC       8E         0
                text99                             9FD2     9FD2       2A         0
                text98                             6CEC     6CEC       C8         0
                text97                             9FA8     9FA8       2A         0
                text96                             561E     561E      130         0
                text95                             6716     6716       E2         0
                text94                             8704     8704       76         0
                text93                             768A     768A       AE         0
                text92                             9F7E     9F7E       2A         0
                text91                             4B94     4B94      16A         0
                text90                             43B4     43B4      1BC         0
                text89                             9814     9814       46         0
                text88                             A024     A024       26         0
                text87                             A100     A100       24         0
                text86                             A0DC     A0DC       24         0
                text85                             6422     6422      100         0
                text84                             9F54     9F54       2A         0
                text83                             2DDA     2DDA      2C4         0
                text82                             8420     8420       7E         0
                text81                             3E50     3E50      1D2         0
                text80                             A0B8     A0B8       24         0
                text79                             8BDC     8BDC       6A         0
                text78                             4CFE     4CFE      166         0
                text77                             4A2A     4A2A      16A         0
                text76                             972A     972A       4E         0
                text75                             A3DC     A3DC        C         0
                text74                             A3F2     A3F2        2         0
                text73                             985A     985A       44         0
                text72                             A094     A094       24         0
                text71                             A1E4     A1E4       1C         0
                text70                             9CEA     9CEA       30         0
                text69                             A070     A070       24         0
                text68                             5126     5126      15C         0
                text67                             A308     A308       16         0
                text66                             631E     631E      104         0
                text65                             999E     999E       3E         0
                text64                             77E0     77E0       A8         0
                text63                             2712     2712      36A         0
                text62                             7302     7302       BA         0
                text61                             621A     621A      104         0
                text60                             752C     752C       B0         0
                text59                             7738     7738       A8         0
                text58                             54EE     54EE      130         0
                text57                             96DC     96DC       4E         0
                text56                             8948     8948       70         0
                text55                             8CAE     8CAE       68         0
                text54                             8C46     8C46       68         0
                text53                             9A18     9A18       3C         0
                text52                             5E00     5E00      108         0
                text51                             6116     6116      104         0
                text50                             2A7C     2A7C      35E         0
                text49                             909E     909E       62         0
                text48                             83A0     83A0       80         0
                text47                             70CA     70CA       BE         0
                text46                             6C24     6C24       C8         0
                text45                             7BB0     7BB0       9C         0
                text44                             99DC     99DC       3C         0
                text43                             8614     8614       78         0
                text42                             88D6     88D6       72         0
                text41                             A35A     A35A       12         0
                text40                             6B5C     6B5C       C8         0
                text39                             9920     9920       40         0
                text38                             93E4     93E4       58         0
                text37                             968C     968C       50         0
                text36                             A168     A168       20         0
                text35                             7474     7474       B8         0
                text34                             927A     927A       5C         0
                text33                             903C     903C       62         0
                text32                             661E     661E       F8         0
                text31                             A2F2     A2F2       16         0
                text30                             9C14     9C14       36         0
                text29                             68D8     68D8       DE         0
                text28                             A2DC     A2DC       16         0
                text27                             A2C6     A2C6       16         0
                text26                             9AFE     9AFE       38         0
                text25                             9CB6     9CB6       34         0
                text24                             A2B0     A2B0       16         0
                text23                             9FFC     9FFC       28         0
                text22                             A29A     A29A       16         0
                text21                             8864     8864       72         0
                text20                             9AC6     9AC6       38         0
                text19                             A284     A284       16         0
                text18                             98E0     98E0       40         0
                text17                             A26E     A26E       16         0
                text16                             75DC     75DC       AE         0
                text15                             921E     921E       5C         0
                text14                             963C     963C       50         0
                text13                             7A72     7A72       A0         0
                text12                             A3E8     A3E8        A         0
                text11                             9A8E     9A8E       38         0
                text10                             A38C     A38C        E         0
                text9                              A3D0     A3D0        C         0
                text8                              A3C4     A3C4        C         0
                text7                              73BC     73BC       B8         0
                text6                              9960     9960       3E         0
                text5                              A37C     A37C       10         0
                text4                              A36C     A36C       10         0
                text3                              92D6     92D6       5A         0
                text2                              9BDE     9BDE       36         0
                text1                              7C4C     7C4C       98         0
                text0                              8FDA     8FDA       62         0
                cinit                              7888     7888       A4         0
                idataBANK1                         A3B6     A3B6        D         0
                idataBANK0                         A3F8     A3F8        1         0

        CLASS   CONST          

        CLASS   SMALLCONST     

        CLASS   MEDIUMCONST    
                mediumconst                        ECB0     ECB0      750         0

        CLASS   COMRAM         
                temp                                 40       40        1         1
                cstackCOMRAM                          1        1       20         1
                bssCOMRAM                            21       21       1F         1

        CLASS   ABS1           

        CLASS   BIGRAM         

        CLASS   RAM            

        CLASS   BANK0          
                cstackBANK0                          60       60       87         1
                dataBANK0                            FF       FF        1         1
                bssBANK0                             E7       E7       18         1

        CLASS   BANK1          
                cstackBANK1                         1FB      1FB        5         1
                dataBANK1                           1EE      1EE        D         1
                bssBANK1                            100      100       EE         1

        CLASS   BANK2          
                bssBANK2                            200      200      100         1

        CLASS   BANK3          
                cstackBANK3                         3CA      3CA       19         1
                bssBANK3                            300      300       CA         1

        CLASS   BANK4          
                bssBANK4                            400      400       A2         1

        CLASS   BANK5          
                bssBANK5                            500      500      100         1

        CLASS   BANK6          

        CLASS   BANK7          

        CLASS   BANK8          

        CLASS   BANK9          

        CLASS   BANK10         

        CLASS   BANK11         

        CLASS   BANK12         

        CLASS   BANK13         

        CLASS   BANK14         

        CLASS   BANK15         

        CLASS   SFR            

        CLASS   FARRAM         

        CLASS   CONFIG         
                config                             FFF8     FFF8        6         0

        CLASS   IDLOC          



SEGMENTS        Name                           Load    Length   Top    Selector   Space  Class

                reset_vec                      000000  000006  000006         0       0  CODE    
                cstackCOMRAM                   000001  000040  000041         1       1  COMRAM  
                intcode                        000008  000006  00000E         4       0  CODE    
                intcodelo                      000018  00A3AB  00A3C3         C       0  CODE    
                cstackBANK0                    000060  0000A0  000100        60       1  BANK0   
                bssBANK1                       000100  000100  000200       100       1  BANK1   
                bssBANK2                       000200  000100  000300       200       1  BANK2   
                bssBANK3                       000300  0000E3  0003E3       300       1  BANK3   
                bssBANK4                       000400  0000A2  0004A2       400       1  BANK4   
                bssBANK5                       000500  000100  000600       500       1  BANK5   
                text8                          00A3C4  000035  00A3F9      51E2       0  CODE    
                mediumconst                    00ECB0  000750  00F400      7658       0  MEDIUMCO
                config                         00FFF8  000006  00FFFE      FFF8       0  CONFIG  


UNUSED ADDRESS RANGES

        Name                Unused          Largest block    Delta
        BANK10           00A00-00AFF             100
        BANK11           00B00-00BFF             100
        BANK12           00C00-00CFF             100
        BANK13           00D00-00DFF             100
        BANK14           00E00-00EFF             100
        BANK15           00F00-00F53              54
        BANK3            003E3-003FF              1D
        BANK4            004A2-004FF              5E
        BANK6            00600-006FF             100
        BANK7            00700-007FF             100
        BANK8            00800-008FF             100
        BANK9            00900-009FF             100
        BIGRAM           00041-0005F              1F
                         003E3-003FF              1D
                         004A2-004FF              5E
                         00600-00F53             954
        CODE             00006-00007               2
                         0000E-00017               A
                         0A3C3-0A3C3               1
                         0A3F9-0ECAF            48B7
        COMRAM           00041-0005F              1F
        CONFIG           0FFFE-0FFFF               2
        CONST            00006-00007               2
                         0000E-00017               A
                         0A3C3-0A3C3               1
                         0A3F9-0ECAF            48B7
        MEDIUMCONST      0A3C3-0A3C3               1
                         0A3F9-0ECAF            48B7
        RAM              003E3-003FF              1D
                         004A2-004FF              5E
                         00600-00F53             100
        SFR              00F54-00FFC               C
        SMALLCONST       0A3C3-0A3C3               1
                         0A3F9-0ECAF             100
        STACK            00600-00F53             954

                                  Symbol Table

?___aldiv                                  cstackBANK0   0006C
?___awdiv                                  cstackBANK0   00060
?___awmod                                  cstackBANK0   00060
?___exp_10                                 cstackBANK0   00060
?___fladd                                  cstackBANK0   000A4
?___fldiv                                  cstackBANK0   00087
?___flmul                                  cstackBANK0   0006E
?___flneg                                  cstackBANK0   000A0
?___fltol                                  cstackBANK0   000B8
?___int32_2_mflot32                        cstackBANK0   0006D
?___lldiv                                  cstackBANK0   00060
?___lmul                                   cstackBANK0   00060
?___lwdiv                                  cstackBANK0   00062
?___lwmod                                  cstackBANK0   00069
?___mflot32_2_int32                        cstackBANK0   0006C
?___wmul                                   cstackBANK0   00062
?___x_sample_fifo                          cstackBANK0   0007A
?___x_sample_fliter                        cstackBANK0   0007A
?___xxtofl                                 cstackBANK0   00060
?_ads1115_read_conversion                  cstackBANK0   0006E
?_ads1115_read_reg                         cstackBANK0   00068
?_cal_diff_hight_to_vol_h                  cstackBANK1   001FB
?_cal_diff_hight_to_vol_v                  cstackBANK1   001FB
?_crc_sum                                  cstackBANK0   00060
?_data_sys_cal_v1                          cstackBANK0   000C2
?_data_sys_cal_v2                          cstackBANK0   000C2
?_in_adc_start_and_read                    cstackBANK0   00064
?_key_waite_release                        cstackBANK0   00068
?_m_interp1_float_fast                     cstackBANK0   000C4
_ADCON0bits                                (abs)         00FC2
_ADCON1                                    (abs)         00FC1
_ADCON2bits                                (abs)         00FC0
_ADRESH                                    (abs)         00FC4
_ADRESL                                    (abs)         00FC3
_ALRMCFGbits                               (abs)         00F5B
_ALRMRPT                                   (abs)         00F5A
_EECON1bits                                (abs)         00FA6
_FSR0H                                     (abs)         00FEA
_FSR0L                                     (abs)         00FE9
_HexTable                                  mediumconst   0EF06
_INTCON                                    (abs)         00FF2
_INTCON2bits                               (abs)         00FF1
_INTCONbits                                (abs)         00FF2
_IPR1bits                                  (abs)         00F9F
_IPR3bits                                  (abs)         00FA5
_LATB                                      (abs)         00F8A
_LATC                                      (abs)         00F8B
_LATG                                      (abs)         00F8F
_LATH                                      (abs)         00F90
_LCDCON                                    (abs)         00FA8
_LCDDATA0                                  (abs)         00FBB
_LCDDATA1                                  (abs)         00FBC
_LCDDATA10                                 (abs)         00F70
_LCDDATA11                                 (abs)         00F71
_LCDDATA12                                 (abs)         00F72
_LCDDATA13                                 (abs)         00F73
_LCDDATA14                                 (abs)         00F74
_LCDDATA15                                 (abs)         00F75
_LCDDATA16                                 (abs)         00F76
_LCDDATA17                                 (abs)         00F77
_LCDDATA18                                 (abs)         00F78
_LCDDATA19                                 (abs)         00F79
_LCDDATA2                                  (abs)         00FBD
_LCDDATA20                                 (abs)         00F7A
_LCDDATA21                                 (abs)         00F7B
_LCDDATA22                                 (abs)         00F7C
_LCDDATA23                                 (abs)         00F7D
_LCDDATA3                                  (abs)         00FBE
_LCDDATA4                                  (abs)         00FBF
_LCDDATA5                                  (abs)         00F6B
_LCDDATA6                                  (abs)         00F6C
_LCDDATA7                                  (abs)         00F6D
_LCDDATA8                                  (abs)         00F6E
_LCDDATA9                                  (abs)         00F6F
_LCDDigitalIndexTable                      mediumconst   0EEB1
_LCDDigitalTable                           mediumconst   0EEDC
_LCDPSbits                                 (abs)         00FAA
_LCDREG                                    (abs)         00FD2
_LCDREGbits                                (abs)         00FD2
_LCDSE0                                    (abs)         00FA9
_LCDSE1                                    (abs)         00FB6
_LCDSE2                                    (abs)         00FB7
_LCDSE3                                    (abs)         00FB8
_LCDSE4                                    (abs)         00FB9
_LCDSE5                                    (abs)         00FBA
_OSCCONbits                                (abs)         00FD3
_PADCFG1bits                               (abs)         00F54
_PIE1bits                                  (abs)         00F9D
_PIE3bits                                  (abs)         00FA3
_PIR1bits                                  (abs)         00F9E
_PIR3bits                                  (abs)         00FA4
_PORTB                                     (abs)         00F81
_PORTC                                     (abs)         00F82
_PR2                                       (abs)         00FCB
_PrChipSampleFinish                        bssBANK0      000F6
_PrChipSampleTimer                         bssBANK1      0015E
_RCONbits                                  (abs)         00FD0
_RTCCFGbits                                (abs)         00F5F
_RTCVALH                                   (abs)         00F5D
_RTCVALL                                   (abs)         00F5C
_T1CONbits                                 (abs)         00FCD
_T2CON                                     (abs)         00FCA
_TABLAT                                    (abs)         00FF5
_TBLPTRH                                   (abs)         00FF7
_TBLPTRL                                   (abs)         00FF6
_TBLPTRU                                   (abs)         00FF8
_TRISB                                     (abs)         00F93
_TRISC                                     (abs)         00F94
_TRISG                                     (abs)         00F98
_TRISH                                     (abs)         00F99
__CFG_CCP2MX$DEFAULT                       (abs)         00000
__CFG_CP0$OFF                              (abs)         00000
__CFG_FCMEN$OFF                            (abs)         00000
__CFG_IESO$OFF                             (abs)         00000
__CFG_LPT1OSC$OFF                          (abs)         00000
__CFG_OSC$HS                               (abs)         00000
__CFG_RTCSOSC$T1OSCREF                     (abs)         00000
__CFG_STVREN$OFF                           (abs)         00000
__CFG_T1DIG$OFF                            (abs)         00000
__CFG_WDTEN$OFF                            (abs)         00000
__CFG_WDTPS$32768                          (abs)         00000
__CFG_XINST$OFF                            (abs)         00000
__HRAM                                     (abs)         00000
__Habs1                                    abs1          00000
__Hbank0                                   bank0         00000
__Hbank1                                   bank1         00000
__Hbank10                                  bank10        00000
__Hbank11                                  bank11        00000
__Hbank12                                  bank12        00000
__Hbank13                                  bank13        00000
__Hbank14                                  bank14        00000
__Hbank15                                  bank15        00000
__Hbank2                                   bank2         00000
__Hbank3                                   bank3         00000
__Hbank4                                   bank4         00000
__Hbank5                                   bank5         00000
__Hbank6                                   bank6         00000
__Hbank7                                   bank7         00000
__Hbank8                                   bank8         00000
__Hbank9                                   bank9         00000
__Hbigbss                                  bigbss        00000
__Hbigdata                                 bigdata       00000
__Hbigram                                  bigram        00000
__Hbss                                     bss           00000
__HbssBANK0                                bssBANK0      00000
__HbssBANK1                                bssBANK1      00000
__HbssBANK2                                bssBANK2      00000
__HbssBANK3                                bssBANK3      00000
__HbssBANK4                                bssBANK4      00000
__HbssBANK5                                bssBANK5      00000
__HbssCOMRAM                               bssCOMRAM     00000
__Hcinit                                   cinit         00000
__Hclrtext                                 clrtext       00000
__Hcomram                                  comram        00000
__Hconfig                                  config        0FFFE
__Hconst                                   const         00000
__HcstackBANK0                             cstackBANK0   00000
__HcstackBANK1                             cstackBANK1   00000
__HcstackBANK3                             cstackBANK3   00000
__HcstackCOMRAM                            cstackCOMRAM  00000
__Hdata                                    data          00000
__HdataBANK0                               dataBANK0     00000
__HdataBANK1                               dataBANK1     00000
__Hfarbss                                  farbss        00000
__Hfardata                                 fardata       00000
__Hibigdata                                ibigdata      00000
__Hidata                                   idata         00000
__HidataBANK0                              idataBANK0    00000
__HidataBANK1                              idataBANK1    00000
__Hidloc                                   idloc         00000
__Hifardata                                ifardata      00000
__Hinit                                    init          000DC
__Hintcode                                 intcode       0000E
__Hintcode_body                            intcode_body  00000
__Hintcodelo                               intcodelo     000D8
__Hintentry                                intentry      00000
__Hintret                                  intret        00000
__Hintsave_regs                            intsave_regs  00000
__Hirdata                                  irdata        00000
__Hjflash_buffer                           jflash_buffer 0F800
__Hmediumconst                             mediumconst   0F400
__HnvFARRAM                                nvFARRAM      00000
__Hnvbit                                   nvbit         00000
__Hnvrram                                  nvrram        00000
__Hparam                                   rparam        00000
__Hpowerup                                 powerup       000D8
__Hram                                     ram           00000
__Hramtop                                  ramtop        01000
__Hrbit                                    rbit          00000
__Hrbss                                    rbss          00000
__Hrdata                                   rdata         00000
__Hreset_vec                               reset_vec     00006
__Hrparam                                  rparam        00000
__Hsfr                                     sfr           00000
__Hsmallconst                              smallconst    00000
__Hspace_0                                 (abs)         0FFFE
__Hspace_1                                 (abs)         00600
__Hspace_2                                 (abs)         00000
__Hstack                                   stack         00000
__Hstruct                                  struct        00000
__Htemp                                    temp          00041
__Htext                                    text          00000
__Htext0                                   text0         00000
__Htext1                                   text1         00000
__Htext10                                  text10        00000
__Htext100                                 text100       00000
__Htext101                                 text101       00000
__Htext102                                 text102       00000
__Htext103                                 text103       00000
__Htext104                                 text104       00000
__Htext105                                 text105       00000
__Htext106                                 text106       00000
__Htext107                                 text107       00000
__Htext108                                 text108       00000
__Htext109                                 text109       00000
__Htext11                                  text11        00000
__Htext110                                 text110       00000
__Htext111                                 text111       00000
__Htext112                                 text112       00000
__Htext113                                 text113       00000
__Htext114                                 text114       00000
__Htext115                                 text115       00000
__Htext116                                 text116       00000
__Htext117                                 text117       00000
__Htext118                                 text118       00000
__Htext119                                 text119       00000
__Htext12                                  text12        00000
__Htext120                                 text120       00000
__Htext121                                 text121       00000
__Htext122                                 text122       00000
__Htext123                                 text123       00000
__Htext124                                 text124       00000
__Htext125                                 text125       00000
__Htext126                                 text126       00000
__Htext127                                 text127       00000
__Htext128                                 text128       00000
__Htext129                                 text129       00000
__Htext13                                  text13        00000
__Htext130                                 text130       00000
__Htext131                                 text131       00000
__Htext132                                 text132       00000
__Htext133                                 text133       00000
__Htext134                                 text134       00000
__Htext135                                 text135       00000
__Htext136                                 text136       00000
__Htext137                                 text137       00000
__Htext138                                 text138       00000
__Htext139                                 text139       00000
__Htext14                                  text14        00000
__Htext140                                 text140       00000
__Htext141                                 text141       00000
__Htext142                                 text142       00000
__Htext143                                 text143       00000
__Htext144                                 text144       00000
__Htext145                                 text145       00000
__Htext146                                 text146       00000
__Htext147                                 text147       00000
__Htext148                                 text148       00000
__Htext149                                 text149       00000
__Htext15                                  text15        00000
__Htext150                                 text150       00000
__Htext151                                 text151       00000
__Htext152                                 text152       00000
__Htext153                                 text153       00000
__Htext154                                 text154       00000
__Htext155                                 text155       00000
__Htext156                                 text156       00000
__Htext157                                 text157       00000
__Htext158                                 text158       00000
__Htext159                                 text159       00000
__Htext16                                  text16        00000
__Htext160                                 text160       00000
__Htext161                                 text161       00000
__Htext162                                 text162       00000
__Htext163                                 text163       00000
__Htext164                                 text164       00000
__Htext165                                 text165       00000
__Htext166                                 text166       00000
__Htext167                                 text167       00000
__Htext168                                 text168       00000
__Htext169                                 text169       00000
__Htext17                                  text17        00000
__Htext170                                 text170       00000
__Htext171                                 text171       00000
__Htext172                                 text172       00000
__Htext173                                 text173       00000
__Htext174                                 text174       00000
__Htext175                                 text175       00000
__Htext176                                 text176       00000
__Htext177                                 text177       00000
__Htext178                                 text178       00000
__Htext179                                 text179       00000
__Htext18                                  text18        00000
__Htext180                                 text180       00000
__Htext181                                 text181       00000
__Htext182                                 text182       00000
__Htext183                                 text183       00000
__Htext184                                 text184       00000
__Htext185                                 text185       00000
__Htext186                                 text186       00000
__Htext187                                 text187       00000
__Htext188                                 text188       00000
__Htext189                                 text189       00000
__Htext19                                  text19        00000
__Htext190                                 text190       00000
__Htext191                                 text191       00000
__Htext192                                 text192       00000
__Htext193                                 text193       00000
__Htext194                                 text194       00000
__Htext195                                 text195       00000
__Htext196                                 text196       00000
__Htext197                                 text197       00000
__Htext198                                 text198       00000
__Htext199                                 text199       00000
__Htext2                                   text2         00000
__Htext20                                  text20        00000
__Htext200                                 text200       00000
__Htext201                                 text201       00000
__Htext202                                 text202       00000
__Htext203                                 text203       00000
__Htext204                                 text204       00000
__Htext205                                 text205       00000
__Htext206                                 text206       00000
__Htext207                                 text207       00000
__Htext208                                 text208       00000
__Htext209                                 text209       00000
__Htext21                                  text21        00000
__Htext210                                 text210       00000
__Htext211                                 text211       00000
__Htext212                                 text212       00000
__Htext213                                 text213       00000
__Htext214                                 text214       00000
__Htext215                                 text215       00000
__Htext216                                 text216       00000
__Htext217                                 text217       00000
__Htext219                                 text219       00000
__Htext22                                  text22        00000
__Htext220                                 text220       00000
__Htext222                                 text222       00000
__Htext223                                 text223       00000
__Htext224                                 text224       00000
__Htext23                                  text23        00000
__Htext24                                  text24        00000
__Htext25                                  text25        00000
__Htext26                                  text26        00000
__Htext27                                  text27        00000
__Htext28                                  text28        00000
__Htext29                                  text29        00000
__Htext3                                   text3         00000
__Htext30                                  text30        00000
__Htext31                                  text31        00000
__Htext32                                  text32        00000
__Htext33                                  text33        00000
__Htext34                                  text34        00000
__Htext35                                  text35        00000
__Htext36                                  text36        00000
__Htext37                                  text37        00000
__Htext38                                  text38        00000
__Htext39                                  text39        00000
__Htext4                                   text4         00000
__Htext40                                  text40        00000
__Htext41                                  text41        00000
__Htext42                                  text42        00000
__Htext43                                  text43        00000
__Htext44                                  text44        00000
__Htext45                                  text45        00000
__Htext46                                  text46        00000
__Htext47                                  text47        00000
__Htext48                                  text48        00000
__Htext49                                  text49        00000
__Htext5                                   text5         00000
__Htext50                                  text50        00000
__Htext51                                  text51        00000
__Htext52                                  text52        00000
__Htext53                                  text53        00000
__Htext54                                  text54        00000
__Htext55                                  text55        00000
__Htext56                                  text56        00000
__Htext57                                  text57        00000
__Htext58                                  text58        00000
__Htext59                                  text59        00000
__Htext6                                   text6         00000
__Htext60                                  text60        00000
__Htext61                                  text61        00000
__Htext62                                  text62        00000
__Htext63                                  text63        00000
__Htext64                                  text64        00000
__Htext65                                  text65        00000
__Htext66                                  text66        00000
__Htext67                                  text67        00000
__Htext68                                  text68        00000
__Htext69                                  text69        00000
__Htext7                                   text7         00000
__Htext70                                  text70        00000
__Htext71                                  text71        00000
__Htext72                                  text72        00000
__Htext73                                  text73        00000
__Htext74                                  text74        00000
__Htext75                                  text75        00000
__Htext76                                  text76        00000
__Htext77                                  text77        00000
__Htext78                                  text78        00000
__Htext79                                  text79        00000
__Htext8                                   text8         00000
__Htext80                                  text80        00000
__Htext81                                  text81        00000
__Htext82                                  text82        00000
__Htext83                                  text83        00000
__Htext84                                  text84        00000
__Htext85                                  text85        00000
__Htext86                                  text86        00000
__Htext87                                  text87        00000
__Htext88                                  text88        00000
__Htext89                                  text89        00000
__Htext9                                   text9         00000
__Htext90                                  text90        00000
__Htext91                                  text91        00000
__Htext92                                  text92        00000
__Htext93                                  text93        00000
__Htext94                                  text94        00000
__Htext95                                  text95        00000
__Htext96                                  text96        00000
__Htext97                                  text97        00000
__Htext98                                  text98        00000
__Htext99                                  text99        00000
__LRAM                                     (abs)         00001
__Labs1                                    abs1          00000
__Lbank0                                   bank0         00000
__Lbank1                                   bank1         00000
__Lbank10                                  bank10        00000
__Lbank11                                  bank11        00000
__Lbank12                                  bank12        00000
__Lbank13                                  bank13        00000
__Lbank14                                  bank14        00000
__Lbank15                                  bank15        00000
__Lbank2                                   bank2         00000
__Lbank3                                   bank3         00000
__Lbank4                                   bank4         00000
__Lbank5                                   bank5         00000
__Lbank6                                   bank6         00000
__Lbank7                                   bank7         00000
__Lbank8                                   bank8         00000
__Lbank9                                   bank9         00000
__Lbigbss                                  bigbss        00000
__Lbigdata                                 bigdata       00000
__Lbigram                                  bigram        00000
__Lbss                                     bss           00000
__LbssBANK0                                bssBANK0      00000
__LbssBANK1                                bssBANK1      00000
__LbssBANK2                                bssBANK2      00000
__LbssBANK3                                bssBANK3      00000
__LbssBANK4                                bssBANK4      00000
__LbssBANK5                                bssBANK5      00000
__LbssCOMRAM                               bssCOMRAM     00000
__Lcinit                                   cinit         00000
__Lclrtext                                 clrtext       00000
__Lcomram                                  comram        00000
__Lconfig                                  config        0FFF8
__Lconst                                   const         00000
__LcstackBANK0                             cstackBANK0   00000
__LcstackBANK1                             cstackBANK1   00000
__LcstackBANK3                             cstackBANK3   00000
__LcstackCOMRAM                            cstackCOMRAM  00000
__Ldata                                    data          00000
__LdataBANK0                               dataBANK0     00000
__LdataBANK1                               dataBANK1     00000
__Lfarbss                                  farbss        00000
__Lfardata                                 fardata       00000
__Libigdata                                ibigdata      00000
__Lidata                                   idata         00000
__LidataBANK0                              idataBANK0    00000
__LidataBANK1                              idataBANK1    00000
__Lidloc                                   idloc         00000
__Lifardata                                ifardata      00000
__Linit                                    init          000D8
__Lintcode                                 intcode       00008
__Lintcode_body                            intcode_body  00000
__Lintcodelo                               intcodelo     00018
__Lintentry                                intentry      00000
__Lintret                                  intret        00000
__Lintsave_regs                            intsave_regs  00000
__Lirdata                                  irdata        00000
__Ljflash_buffer                           jflash_buffer 0F800
__Lmediumconst                             mediumconst   0ECB0
__LnvFARRAM                                nvFARRAM      00000
__Lnvbit                                   nvbit         00000
__Lnvrram                                  nvrram        00000
__Lparam                                   rparam        00000
__Lpowerup                                 powerup       000D8
__Lram                                     ram           00000
__Lramtop                                  ramtop        01000
__Lrbit                                    rbit          00000
__Lrbss                                    rbss          00000
__Lrdata                                   rdata         00000
__Lreset_vec                               reset_vec     00000
__Lrparam                                  rparam        00000
__Lsfr                                     sfr           00000
__Lsmallconst                              smallconst    00000
__Lspace_0                                 (abs)         00000
__Lspace_1                                 (abs)         00000
__Lspace_2                                 (abs)         00000
__Lstack                                   stack         00000
__Lstruct                                  struct        00000
__Ltemp                                    temp          00040
__Ltext                                    text          00000
__Ltext0                                   text0         00000
__Ltext1                                   text1         00000
__Ltext10                                  text10        00000
__Ltext100                                 text100       00000
__Ltext101                                 text101       00000
__Ltext102                                 text102       00000
__Ltext103                                 text103       00000
__Ltext104                                 text104       00000
__Ltext105                                 text105       00000
__Ltext106                                 text106       00000
__Ltext107                                 text107       00000
__Ltext108                                 text108       00000
__Ltext109                                 text109       00000
__Ltext11                                  text11        00000
__Ltext110                                 text110       00000
__Ltext111                                 text111       00000
__Ltext112                                 text112       00000
__Ltext113                                 text113       00000
__Ltext114                                 text114       00000
__Ltext115                                 text115       00000
__Ltext116                                 text116       00000
__Ltext117                                 text117       00000
__Ltext118                                 text118       00000
__Ltext119                                 text119       00000
__Ltext12                                  text12        00000
__Ltext120                                 text120       00000
__Ltext121                                 text121       00000
__Ltext122                                 text122       00000
__Ltext123                                 text123       00000
__Ltext124                                 text124       00000
__Ltext125                                 text125       00000
__Ltext126                                 text126       00000
__Ltext127                                 text127       00000
__Ltext128                                 text128       00000
__Ltext129                                 text129       00000
__Ltext13                                  text13        00000
__Ltext130                                 text130       00000
__Ltext131                                 text131       00000
__Ltext132                                 text132       00000
__Ltext133                                 text133       00000
__Ltext134                                 text134       00000
__Ltext135                                 text135       00000
__Ltext136                                 text136       00000
__Ltext137                                 text137       00000
__Ltext138                                 text138       00000
__Ltext139                                 text139       00000
__Ltext14                                  text14        00000
__Ltext140                                 text140       00000
__Ltext141                                 text141       00000
__Ltext142                                 text142       00000
__Ltext143                                 text143       00000
__Ltext144                                 text144       00000
__Ltext145                                 text145       00000
__Ltext146                                 text146       00000
__Ltext147                                 text147       00000
__Ltext148                                 text148       00000
__Ltext149                                 text149       00000
__Ltext15                                  text15        00000
__Ltext150                                 text150       00000
__Ltext151                                 text151       00000
__Ltext152                                 text152       00000
__Ltext153                                 text153       00000
__Ltext154                                 text154       00000
__Ltext155                                 text155       00000
__Ltext156                                 text156       00000
__Ltext157                                 text157       00000
__Ltext158                                 text158       00000
__Ltext159                                 text159       00000
__Ltext16                                  text16        00000
__Ltext160                                 text160       00000
__Ltext161                                 text161       00000
__Ltext162                                 text162       00000
__Ltext163                                 text163       00000
__Ltext164                                 text164       00000
__Ltext165                                 text165       00000
__Ltext166                                 text166       00000
__Ltext167                                 text167       00000
__Ltext168                                 text168       00000
__Ltext169                                 text169       00000
__Ltext17                                  text17        00000
__Ltext170                                 text170       00000
__Ltext171                                 text171       00000
__Ltext172                                 text172       00000
__Ltext173                                 text173       00000
__Ltext174                                 text174       00000
__Ltext175                                 text175       00000
__Ltext176                                 text176       00000
__Ltext177                                 text177       00000
__Ltext178                                 text178       00000
__Ltext179                                 text179       00000
__Ltext18                                  text18        00000
__Ltext180                                 text180       00000
__Ltext181                                 text181       00000
__Ltext182                                 text182       00000
__Ltext183                                 text183       00000
__Ltext184                                 text184       00000
__Ltext185                                 text185       00000
__Ltext186                                 text186       00000
__Ltext187                                 text187       00000
__Ltext188                                 text188       00000
__Ltext189                                 text189       00000
__Ltext19                                  text19        00000
__Ltext190                                 text190       00000
__Ltext191                                 text191       00000
__Ltext192                                 text192       00000
__Ltext193                                 text193       00000
__Ltext194                                 text194       00000
__Ltext195                                 text195       00000
__Ltext196                                 text196       00000
__Ltext197                                 text197       00000
__Ltext198                                 text198       00000
__Ltext199                                 text199       00000
__Ltext2                                   text2         00000
__Ltext20                                  text20        00000
__Ltext200                                 text200       00000
__Ltext201                                 text201       00000
__Ltext202                                 text202       00000
__Ltext203                                 text203       00000
__Ltext204                                 text204       00000
__Ltext205                                 text205       00000
__Ltext206                                 text206       00000
__Ltext207                                 text207       00000
__Ltext208                                 text208       00000
__Ltext209                                 text209       00000
__Ltext21                                  text21        00000
__Ltext210                                 text210       00000
__Ltext211                                 text211       00000
__Ltext212                                 text212       00000
__Ltext213                                 text213       00000
__Ltext214                                 text214       00000
__Ltext215                                 text215       00000
__Ltext216                                 text216       00000
__Ltext217                                 text217       00000
__Ltext219                                 text219       00000
__Ltext22                                  text22        00000
__Ltext220                                 text220       00000
__Ltext222                                 text222       00000
__Ltext223                                 text223       00000
__Ltext224                                 text224       00000
__Ltext23                                  text23        00000
__Ltext24                                  text24        00000
__Ltext25                                  text25        00000
__Ltext26                                  text26        00000
__Ltext27                                  text27        00000
__Ltext28                                  text28        00000
__Ltext29                                  text29        00000
__Ltext3                                   text3         00000
__Ltext30                                  text30        00000
__Ltext31                                  text31        00000
__Ltext32                                  text32        00000
__Ltext33                                  text33        00000
__Ltext34                                  text34        00000
__Ltext35                                  text35        00000
__Ltext36                                  text36        00000
__Ltext37                                  text37        00000
__Ltext38                                  text38        00000
__Ltext39                                  text39        00000
__Ltext4                                   text4         00000
__Ltext40                                  text40        00000
__Ltext41                                  text41        00000
__Ltext42                                  text42        00000
__Ltext43                                  text43        00000
__Ltext44                                  text44        00000
__Ltext45                                  text45        00000
__Ltext46                                  text46        00000
__Ltext47                                  text47        00000
__Ltext48                                  text48        00000
__Ltext49                                  text49        00000
__Ltext5                                   text5         00000
__Ltext50                                  text50        00000
__Ltext51                                  text51        00000
__Ltext52                                  text52        00000
__Ltext53                                  text53        00000
__Ltext54                                  text54        00000
__Ltext55                                  text55        00000
__Ltext56                                  text56        00000
__Ltext57                                  text57        00000
__Ltext58                                  text58        00000
__Ltext59                                  text59        00000
__Ltext6                                   text6         00000
__Ltext60                                  text60        00000
__Ltext61                                  text61        00000
__Ltext62                                  text62        00000
__Ltext63                                  text63        00000
__Ltext64                                  text64        00000
__Ltext65                                  text65        00000
__Ltext66                                  text66        00000
__Ltext67                                  text67        00000
__Ltext68                                  text68        00000
__Ltext69                                  text69        00000
__Ltext7                                   text7         00000
__Ltext70                                  text70        00000
__Ltext71                                  text71        00000
__Ltext72                                  text72        00000
__Ltext73                                  text73        00000
__Ltext74                                  text74        00000
__Ltext75                                  text75        00000
__Ltext76                                  text76        00000
__Ltext77                                  text77        00000
__Ltext78                                  text78        00000
__Ltext79                                  text79        00000
__Ltext8                                   text8         00000
__Ltext80                                  text80        00000
__Ltext81                                  text81        00000
__Ltext82                                  text82        00000
__Ltext83                                  text83        00000
__Ltext84                                  text84        00000
__Ltext85                                  text85        00000
__Ltext86                                  text86        00000
__Ltext87                                  text87        00000
__Ltext88                                  text88        00000
__Ltext89                                  text89        00000
__Ltext9                                   text9         00000
__Ltext90                                  text90        00000
__Ltext91                                  text91        00000
__Ltext92                                  text92        00000
__Ltext93                                  text93        00000
__Ltext94                                  text94        00000
__Ltext95                                  text95        00000
__Ltext96                                  text96        00000
__Ltext97                                  text97        00000
__Ltext98                                  text98        00000
__Ltext99                                  text99        00000
__S0                                       (abs)         0FFFE
__S1                                       (abs)         00600
__S2                                       (abs)         00000
___aldiv                                   text172       05AC4
___aldiv@counter                           cstackBANK0   00074
___aldiv@dividend                          cstackBANK0   0006C
___aldiv@divisor                           cstackBANK0   00070
___aldiv@quotient                          cstackBANK0   00076
___aldiv@sign                              cstackBANK0   00075
___awdiv                                   text156       07188
___awdiv@counter                           cstackBANK0   00064
___awdiv@dividend                          cstackBANK0   00060
___awdiv@divisor                           cstackBANK0   00062
___awdiv@quotient                          cstackBANK0   00066
___awdiv@sign                              cstackBANK0   00065
___awmod                                   text151       079D0
___awmod@counter                           cstackBANK0   00064
___awmod@dividend                          cstackBANK0   00060
___awmod@divisor                           cstackBANK0   00062
___awmod@sign                              cstackBANK0   00065
___down_dpr_calib                          text72        0A094
___down_home_adj                           text71        0A1E4
___down_home_adj@t8                        cstackCOMRAM  00020
___down_pose_size                          text70        09CEA
___down_pr_calib                           text69        0A070
___enter_menu_bar_scale                    text44        099DC
___enter_menu_bar_scale@fps                cstackBANK0   00062
___enter_menu_calib_press                  text51        06116
___enter_menu_calib_press@col              cstackCOMRAM  00020
___enter_menu_calib_press@row              cstackBANK0   00083
___enter_menu_calib_press@stp              cstackBANK0   00084
___enter_menu_calib_press@t32              cstackBANK0   00086
___enter_menu_calib_press_diff             text66        0631E
___enter_menu_calib_press_diff@col         cstackCOMRAM  00020
___enter_menu_calib_press_diff@row         cstackBANK0   00083
___enter_menu_calib_press_diff@stp         cstackBANK0   00084
___enter_menu_calib_press_diff@t32         cstackBANK0   00086
___enter_menu_epr_calib                    text59        07738
___enter_menu_epr_calib@__subMenu          cstackBANK0   0007D
___enter_menu_epr_calib@fps                cstackBANK0   00082
___enter_menu_epr_calib@t32                cstackBANK0   0007E
___enter_menu_epr_ilp_scale                text62        07302
___enter_menu_epr_ilp_scale@__subMenu      cstackBANK0   0007D
___enter_menu_epr_ilp_scale@fps            cstackBANK0   00082
___enter_menu_epr_ilp_scale@t32            cstackBANK0   0007E
___enter_menu_password                     text67        0A308
___enter_menu_poly_coeffic                 text57        096DC
___enter_menu_poly_coeffic@__subMenu       cstackBANK0   00062
___enter_menu_poly_coeffic@fps             cstackBANK0   00063
___enter_menu_set_base_zero                text43        08614
___enter_menu_set_base_zero@fps            cstackBANK0   0007D
___enter_menu_set_base_zero@t32            cstackBANK0   0007F
___enter_menu_set_d                        text55        08CAE
___enter_menu_set_d@fps                    cstackBANK0   0007D
___enter_menu_set_d@t32                    cstackBANK0   0007F
___enter_menu_set_density                  text42        088D6
___enter_menu_set_density@fps              cstackBANK0   0007F
___enter_menu_set_density@t32              cstackBANK0   00081
___enter_menu_set_h                        text54        08C46
___enter_menu_set_h@fps                    cstackBANK0   0007D
___enter_menu_set_h@t32                    cstackBANK0   0007F
___enter_menu_set_pose_size                text53        09A18
___enter_menu_set_pose_size@fps            cstackBANK0   00060
___enter_menu_warn_type                    text49        0909E
___enter_menu_warn_type@__subMenu          cstackBANK0   00062
___enter_menu_warn_type@fps                cstackBANK0   00063
___enter_menu_warn_value                   text47        070CA
___enter_menu_warn_value@__subMenu         cstackBANK0   0007F
___enter_menu_warn_value@fps               cstackBANK0   00080
___enter_menu_warn_value@t32               cstackBANK0   00083
___enter_menu_warn_value@t8                cstackBANK0   00082
___enter_menu_work_mode                    text41        0A35A
___exit_menu_to_home_unsave                text65        0999E
___exp_10                                  text34        0927A
___exp_10@n                                cstackCOMRAM  00020
___extmem_base                             (abs)         20000
___fladd                                   text180       01168
___fladd@a                                 cstackBANK0   000A8
___fladd@aexp                              cstackBANK0   000B5
___fladd@b                                 cstackBANK0   000A4
___fladd@bexp                              cstackBANK0   000B6
___fladd@grs                               cstackBANK0   000B7
___fladd@signs                             cstackBANK0   000B4
___fldiv                                   text194       02352
___fldiv@a                                 cstackBANK0   0008B
___fldiv@aexp                              cstackBANK0   0009F
___fldiv@b                                 cstackBANK0   00087
___fldiv@bexp                              cstackBANK0   0009E
___fldiv@grs                               cstackBANK0   0009A
___fldiv@new_exp                           cstackBANK0   00098
___fldiv@rem                               cstackBANK0   00094
___fldiv@sign                              cstackBANK0   00093
___flge                                    text179       04728
___flge@ff1                                cstackBANK0   000B8
___flge@ff2                                cstackBANK0   000BC
___flmul                                   text193       01610
___flmul@a                                 cstackBANK0   00072
___flmul@aexp                              cstackBANK0   0007B
___flmul@b                                 cstackBANK0   0006E
___flmul@bexp                              cstackBANK0   00080
___flmul@grs                               cstackBANK0   0007C
___flmul@prod                              cstackBANK0   00081
___flmul@sign                              cstackBANK0   0007A
___flmul@temp                              cstackBANK0   00085
___flneg                                   text177       09B36
___flneg@f1                                cstackBANK0   000A0
___fltol                                   text192       05CF4
___fltol@exp1                              cstackBANK0   000C1
___fltol@f1                                cstackBANK0   000B8
___fltol@sign1                             cstackBANK0   000C0
___int32_2_mflot32                         text118       06010
___int32_2_mflot32@F7705                   bssBANK1      00142
___int32_2_mflot32@mf                      cstackBANK0   00079
___int32_2_mflot32@t32                     cstackBANK0   00075
___int32_2_mflot32@x                       cstackBANK0   0006D
___inthi_sp                                stack         00000
___intlo_sp                                stack         00000
___lbdiv                                   text125       09778
___lbdiv@counter                           cstackBANK0   00061
___lbdiv@dividend                          cstackBANK0   00060
___lbdiv@divisor                           cstackCOMRAM  00020
___lbdiv@quotient                          cstackBANK0   00062
___lldiv                                   text119       07246
___lldiv@counter                           cstackBANK0   0006C
___lldiv@dividend                          cstackBANK0   00060
___lldiv@divisor                           cstackBANK0   00064
___lldiv@quotient                          cstackBANK0   00068
___lmul                                    text171       0877A
___lmul@multiplicand                       cstackBANK0   00064
___lmul@multiplier                         cstackBANK0   00060
___lmul@product                            cstackBANK0   00068
___lwdiv                                   text108       0868C
___lwdiv@counter                           cstackBANK0   00066
___lwdiv@dividend                          cstackBANK0   00062
___lwdiv@divisor                           cstackBANK0   00064
___lwdiv@quotient                          cstackBANK0   00067
___lwmod                                   text33        0903C
___lwmod@counter                           cstackBANK0   0006D
___lwmod@dividend                          cstackBANK0   00069
___lwmod@divisor                           cstackBANK0   0006B
___mflot32_2_int32                         text64        077E0
___mflot32_2_int32@F7710                   bssBANK1      0013E
___mflot32_2_int32@i                       cstackBANK0   00070
___mflot32_2_int32@mf                      cstackBANK0   00075
___mflot32_2_int32@ret                     cstackBANK0   00071
___mflot32_2_int32@x                       cstackBANK0   0006C
___param_bank                              (abs)         00000
___rparam_used                             (abs)         00001
___set_long_bar_level_scale                text39        09920
___set_long_bar_level_scale@p              cstackBANK0   000E3
___set_long_bar_level_scale@stp            cstackBANK0   000E5
___set_long_base_zero                      text38        093E4
___set_long_base_zero@stp                  cstackBANK3   003CE
___set_long_base_zero@t32                  cstackBANK3   003CA
___set_long_density                        text37        0968C
___set_long_density@stp                    cstackBANK3   003CE
___set_long_density@t32                    cstackBANK3   003CA
___set_long_work_mode                      text36        0A168
___set_long_work_mode@p                    cstackBANK0   00060
___set_short_diff_calib                    text63        02712
___set_short_diff_calib@adjv               cstackBANK0   0009D
___set_short_diff_calib@gohome             cstackBANK0   00094
___set_short_diff_calib@pra                cstackBANK0   00090
___set_short_diff_calib@saveFlg            cstackBANK0   00096
___set_short_diff_calib@t16                cstackBANK0   0009B
___set_short_diff_calib@t32                cstackBANK0   00097
___set_short_diff_calib@t8                 cstackBANK0   00095
___set_short_epr_ilp_scale                 text60        0752C
___set_short_epr_ilp_scale@gohome          cstackBANK3   003CA
___set_short_epr_ilp_scale@stp             cstackBANK3   003CF
___set_short_epr_ilp_scale@t32             cstackBANK3   003CB
___set_short_epr_param                     text58        054EE
___set_short_epr_param@gohome              cstackBANK3   003CA
___set_short_epr_param@stp                 cstackBANK3   003CF
___set_short_epr_param@t32                 cstackBANK3   003CB
___set_short_poly_coefic                   text56        08948
___set_short_poly_coefic@gohome            cstackBANK1   001FB
___set_short_poly_coefic@p                 cstackBANK1   001FC
___set_short_poly_coefic@stp               cstackBANK1   001FE
___set_short_pose_size                     text52        05E00
___set_short_pose_size@gohome              cstackBANK3   003CA
___set_short_pose_size@p                   cstackBANK3   003CB
___set_short_pose_size@stp                 cstackBANK3   003D1
___set_short_pose_size@t32                 cstackBANK3   003CD
___set_short_pr_calib                      text50        02A7C
___set_short_pr_calib@adjv                 cstackBANK0   0009D
___set_short_pr_calib@gohome               cstackBANK0   00094
___set_short_pr_calib@pra                  cstackBANK0   00090
___set_short_pr_calib@saveFlg              cstackBANK0   00096
___set_short_pr_calib@t16                  cstackBANK0   0009B
___set_short_pr_calib@t32                  cstackBANK0   00097
___set_short_pr_calib@t8                   cstackBANK0   00095
___set_short_warn_type                     text48        083A0
___set_short_warn_type@gohome              cstackBANK1   001FB
___set_short_warn_type@p                   cstackBANK1   001FC
___set_short_warn_type@stp                 cstackBANK1   001FE
___set_short_warn_value                    text46        06C24
___set_short_warn_value@gohome             cstackBANK3   003CA
___set_short_warn_value@stp                cstackBANK3   003CF
___set_short_warn_value@t32                cstackBANK3   003CB
___set_short_warn_value@t8                 cstackBANK3   003D1
___sp                                      stack         00000
___sys_data_save_write_flash               text61        0621A
___sys_data_save_write_flash@buf           cstackBANK0   000E1
___sys_data_save_write_flash@ret           cstackBANK0   000DE
___sys_data_save_write_flash@stp           cstackBANK0   000DF
___up_adj_bar_level_scale                  text31        0A2F2
___up_adj_work_mode                        text30        09C14
___up_adj_work_mode@p                      cstackBANK0   00060
___up_base_zero_adj                        text28        0A2DC
___up_density_adj                          text27        0A2C6
___up_diff_calib_adj                       text26        09AFE
___up_diff_calib_adj@t8                    cstackBANK0   0007B
___up_epr_calib_adj                        text25        09CB6
___up_epr_ilp_scale_adj                    text24        0A2B0
___up_home_adj                             text23        09FFC
___up_home_adj@t8                          cstackCOMRAM  00020
___up_poly_coefic_adj                      text22        0A29A
___up_pose_size_adj                        text21        08864
___up_pose_size_adj@p                      cstackBANK0   0007C
___up_pr_calib_adj                         text20        09AC6
___up_pr_calib_adj@t8                      cstackBANK0   0007B
___up_psw_adj                              text19        0A284
___up_warn_type_adj                        text18        098E0
___up_warn_type_adj@p                      cstackBANK0   00060
___up_warn_value_adj                       text17        0A26E
___wmul                                    text203       09C4A
___wmul@multiplicand                       cstackBANK0   00064
___wmul@multiplier                         cstackBANK0   00062
___wmul@product                            cstackBANK0   00066
___x_arrange_str                           text153       091C0
___x_arrange_str@i                         cstackCOMRAM  00020
___x_arrange_str@len                       cstackBANK0   00062
___x_arrange_str@str                       cstackBANK0   00060
___x_sample_fifo                           text91        04B94
___x_sample_fifo@buf                       cstackBANK0   0007A
___x_sample_fifo@i                         cstackBANK0   00089
___x_sample_fifo@len                       cstackBANK0   0007E
___x_sample_fifo@ret                       cstackBANK0   00085
___x_sample_fifo@x                         cstackBANK0   0007C
___x_sample_fliter                         text83        02DDA
___x_sample_fliter@buf                     cstackBANK0   0007A
___x_sample_fliter@i                       cstackBANK0   0008E
___x_sample_fliter@len                     cstackBANK0   0007C
___x_sample_fliter@loop                    cstackBANK0   0007D
___x_sample_fliter@max                     cstackBANK0   00086
___x_sample_fliter@maxLoc                  cstackBANK0   00084
___x_sample_fliter@min                     cstackBANK0   00088
___x_sample_fliter@minLoc                  cstackBANK0   00085
___x_sample_fliter@t32                     cstackBANK0   0008A
___xxtofl                                  text191       04022
___xxtofl@arg                              cstackBANK0   0006A
___xxtofl@exp                              cstackBANK0   00069
___xxtofl@sign                             cstackBANK0   00068
___xxtofl@val                              cstackBANK0   00060
__accesstop                                (abs)         00060
__activetblptr                             (abs)         00002
__end_of_HexTable                          mediumconst   0EF17
__end_of_LCDDigitalIndexTable              mediumconst   0EEDC
__end_of_LCDDigitalTable                   mediumconst   0EF06
__end_of___aldiv                           text172       05BDE
__end_of___awdiv                           text156       07246
__end_of___awmod                           text151       07A72
__end_of___down_dpr_calib                  text72        0A0B8
__end_of___down_home_adj                   text71        0A200
__end_of___down_pose_size                  text70        09D1A
__end_of___down_pr_calib                   text69        0A094
__end_of___enter_menu_bar_scale            text44        09A18
__end_of___enter_menu_calib_press          text51        0621A
__end_of___enter_menu_calib_press_diff     text66        06422
__end_of___enter_menu_epr_calib            text59        077E0
__end_of___enter_menu_epr_ilp_scale        text62        073BC
__end_of___enter_menu_password             text67        0A31E
__end_of___enter_menu_poly_coeffic         text57        0972A
__end_of___enter_menu_set_base_zero        text43        0868C
__end_of___enter_menu_set_d                text55        08D16
__end_of___enter_menu_set_density          text42        08948
__end_of___enter_menu_set_h                text54        08CAE
__end_of___enter_menu_set_pose_size        text53        09A54
__end_of___enter_menu_warn_type            text49        09100
__end_of___enter_menu_warn_value           text47        07188
__end_of___enter_menu_work_mode            text41        0A36C
__end_of___exit_menu_to_home_unsave        text65        099DC
__end_of___exp_10                          text34        092D6
__end_of___fladd                           text180       01610
__end_of___fldiv                           text194       02712
__end_of___flge                            text179       048B8
__end_of___flmul                           text193       01AB6
__end_of___flneg                           text177       09B6E
__end_of___fltol                           text192       05E00
__end_of___int32_2_mflot32                 text118       06116
__end_of___lbdiv                           text125       097C6
__end_of___lldiv                           text119       07302
__end_of___lmul                            text171       087F0
__end_of___lwdiv                           text108       08704
__end_of___lwmod                           text33        0909E
__end_of___mflot32_2_int32                 text64        07888
__end_of___set_long_bar_level_scale        text39        09960
__end_of___set_long_base_zero              text38        0943C
__end_of___set_long_density                text37        096DC
__end_of___set_long_work_mode              text36        0A188
__end_of___set_short_diff_calib            text63        02A7C
__end_of___set_short_epr_ilp_scale         text60        075DC
__end_of___set_short_epr_param             text58        0561E
__end_of___set_short_poly_coefic           text56        089B8
__end_of___set_short_pose_size             text52        05F08
__end_of___set_short_pr_calib              text50        02DDA
__end_of___set_short_warn_type             text48        08420
__end_of___set_short_warn_value            text46        06CEC
__end_of___sys_data_save_write_flash       text61        0631E
__end_of___up_adj_bar_level_scale          text31        0A308
__end_of___up_adj_work_mode                text30        09C4A
__end_of___up_base_zero_adj                text28        0A2F2
__end_of___up_density_adj                  text27        0A2DC
__end_of___up_diff_calib_adj               text26        09B36
__end_of___up_epr_calib_adj                text25        09CEA
__end_of___up_epr_ilp_scale_adj            text24        0A2C6
__end_of___up_home_adj                     text23        0A024
__end_of___up_poly_coefic_adj              text22        0A2B0
__end_of___up_pose_size_adj                text21        088D6
__end_of___up_pr_calib_adj                 text20        09AFE
__end_of___up_psw_adj                      text19        0A29A
__end_of___up_warn_type_adj                text18        09920
__end_of___up_warn_value_adj               text17        0A284
__end_of___wmul                            text203       09C80
__end_of___x_arrange_str                   text153       0921E
__end_of___x_sample_fifo                   text91        04CFE
__end_of___x_sample_fliter                 text83        0309E
__end_of___xxtofl                          text191       041F0
__end_of__initialization                   cinit         0791E
__end_of_ads1115_init                      text217       079D0
__end_of_ads1115_init_all_chip             text216       09A8E
__end_of_ads1115_read_conversion           text89        0985A
__end_of_ads1115_read_reg                  text90        04570
__end_of_ads1115_set_data_rate             text88        0A04A
__end_of_ads1115_set_mux                   text87        0A124
__end_of_ads1115_set_pga                   text86        0A100
__end_of_ads1115_start_conversion          text84        09F7E
__end_of_ads1115_write_reg                 text85        06522
__end_of_at24c02_init                      text215       08614
__end_of_at24c02_read_n_byte               text206       04728
__end_of_at24c02_write_n_byte              text204       05CF4
__end_of_auchCRCHi                         mediumconst   0EEB1
__end_of_auchCRCLo                         mediumconst   0EDB1
__end_of_cal_additional_pressute           text164       0A21C
__end_of_cal_diff_hight_level              text178       03358
__end_of_cal_diff_hight_to_vol_h           text175       035D0
__end_of_cal_diff_hight_to_vol_v           text174       00784
__end_of_cal_diff_p_to_h                   text173       06010
__end_of_cal_diff_press                    text167       05AC4
__end_of_cal_press                         text162       08598
__end_of_cal_pt100_temperature_ex          text161       0A332
__end_of_cal_pt100_temperature_in          text166       0A346
__end_of_calib_data_init_diff_pr           text197       059A2
__end_of_calib_data_init_pr                text195       05878
__end_of_calib_data_set_default_diff_pr    text202       03E50
__end_of_calib_data_set_default_pr         text196       043B4
__end_of_crc_append                        text200       08F76
__end_of_crc_sum                           text201       07BB0
__end_of_crc_verify                        text198       08316
__end_of_data_init_all                     text183       0A3B6
__end_of_data_sys_cal_v1                   text190       03C72
__end_of_data_sys_cal_v2                   text189       04FC8
__end_of_data_sys_init                     text184       04A2A
__end_of_defultSystemData                  mediumconst   0F32F
__end_of_delay_ms                          text205       0A070
__end_of_delay_us                          text214       09BDE
__end_of_event_process_rtc                 text92        09FA8
__end_of_event_process_ticker              text75        0A3E8
__end_of_event_process_time_out            text74        0A3F4
__end_of_flashTestbuf                      mediumconst   0F370
__end_of_hKcy                              mediumconst   0F23F
__end_of_hKel                              mediumconst   0F0AB
__end_of_handler_interrupt_hight           intcode_body  06F44
__end_of_handler_interrupt_low             intcodelo     000D8
__end_of_iic_received_byte                 text213       08FDA
__end_of_iic_received_byte_if_ack          text211       0A1A8
__end_of_iic_send_ack                      text212       0963C
__end_of_iic_send_byte                     text208       08864
__end_of_iic_start                         text207       09BA6
__end_of_iic_stop                          text210       09CB6
__end_of_iic_waite_ack                     text209       094EC
__end_of_in_adc_init                       text80        0A0DC
__end_of_in_adc_start_and_read             text79        08C46
__end_of_key_adj_value_fixed               text32        06716
__end_of_key_adj_value_float               text29        069B6
__end_of_key_polling                       text15        0927A
__end_of_key_process                       text13        07B12
__end_of_key_process_down                  text68        05282
__end_of_key_process_set                   text45        07C4C
__end_of_key_process_set_down_long         text40        06C24
__end_of_key_process_set_long              text35        0752C
__end_of_key_process_up                    text16        0768A
__end_of_key_shift_loc                     text73        0989E
__end_of_key_waite_release                 text14        0968C
__end_of_lcd_bl_on                         text12        0A3F2
__end_of_lcd_config                        text11        09AC6
__end_of_lcd_disp_all                      text157       09ECA
__end_of_lcd_disp_chr_loc_0                text141       081FC
__end_of_lcd_disp_chr_loc_1                text140       0816C
__end_of_lcd_disp_chr_loc_2                text139       080DC
__end_of_lcd_disp_chr_loc_3                text138       0804C
__end_of_lcd_disp_chr_loc_4                text137       07FBC
__end_of_lcd_disp_chr_loc_5                text136       07F2C
__end_of_lcd_disp_chr_loc_6                text135       07E9C
__end_of_lcd_disp_chr_loc_7                text134       07E0C
__end_of_lcd_disp_dp_loc_0                 text148       09E6A
__end_of_lcd_disp_dp_loc_1                 text147       09E3A
__end_of_lcd_disp_dp_loc_2                 text146       09E0A
__end_of_lcd_disp_dp_loc_4                 text145       09DDA
__end_of_lcd_disp_dp_loc_5                 text144       09DAA
__end_of_lcd_disp_dp_loc_6                 text143       09D7A
__end_of_lcd_disp_get_code                 text133       091C0
__end_of_lcd_disp_level                    text116       09494
__end_of_lcd_disp_level_bar                text117       01168
__end_of_lcd_disp_logo                     text154       09E9A
__end_of_lcd_disp_refresh                  text152       09162
__end_of_lcd_disp_unit_1st_m               text115       095EA
__end_of_lcd_disp_unit_1st_m3              text114       08EAE
__end_of_lcd_disp_unit_2nd_m               text113       08E48
__end_of_lcd_disp_unit_2nd_m3              text112       083A0
__end_of_lcd_disp_unit_mpa                 text111       08DE2
__end_of_lcd_disp_unit_t                   text110       09596
__end_of_lcd_disp_unit_temperature         text109       08D7C
__end_of_lcd_init                          text10        0A39A
__end_of_lcd_set_com_seg                   text155       06E7C
__end_of_lcd_show_chr                      text132       07D7C
__end_of_lcd_show_dp                       text142       08B70
__end_of_lcd_show_string                   text131       08B04
__end_of_lcd_show_string_l0                text107       08A96
__end_of_lcd_show_string_l1                text106       098E0
__end_of_m_flash_erase                     text187       093E4
__end_of_m_flash_read                      text186       0851C
__end_of_m_flash_unlock                    text188       0A26E
__end_of_m_flash_write                     text185       054EE
__end_of_m_int16_2_str_4                   text150       05126
__end_of_m_int8_2_hex                      text3         09330
__end_of_m_interp1_cal_p_t                 text170       01F2A
__end_of_m_interp1_cal_p_v                 text169       00C96
__end_of_m_interp1_float_fast              text176       02352
__end_of_m_mem_cpy                         text149       08BDC
__end_of_m_mem_cpy_len                     text199       09814
__end_of_m_mem_set                         text168       0A168
__end_of_main                              text0         0903C
__end_of_rtc_alrm_irq_hook                 text220       0A3F6
__end_of_rtc_init                          text6         0999E
__end_of_rtc_set                           text7         07474
__end_of_rtcc_reg_wr_disable               text9         0A3DC
__end_of_rtcc_reg_wr_enable                text8         0A3D0
__end_of_sample_all_power_off              text182       0A3A8
__end_of_sample_all_power_on               text181       0A35A
__end_of_sample_call_cal_diff_pr           text165       0A1E4
__end_of_sample_call_cal_in_soc            text163       0A146
__end_of_sample_call_cal_pr                text160       0A1C6
__end_of_sample_call_in_ticker             text76        09778
__end_of_sample_diff_pr_chip_fast          text81        04022
__end_of_sample_diff_pr_fliter             text82        0849E
__end_of_sample_function_enable_fi_in_rtc  text158       06B5C
__end_of_sample_in_soc_adc_ch              text78        04E64
__end_of_sample_pr_chip_fast               text77        04B94
__end_of_sample_variable_init              text159       09542
__end_of_soc_init                          text4         0A37C
__end_of_sys_ticker_init                   text5         0A38C
__end_of_sys_ticker_irq_hook               text219       0A238
__end_of_ticker_dly                        text2         09C14
__end_of_ui_disp_adj_xfixed_pt             text98        06DB4
__end_of_ui_disp_adj_xfixed_pt_dp          text129       06A8E
__end_of_ui_disp_adj_xfloat_pt             text127       0382A
__end_of_ui_disp_clear_num_dp              text130       0938A
__end_of_ui_disp_menu                      text93        07738
__end_of_ui_disp_menu_bar_full_adj         text128       09D4A
__end_of_ui_disp_menu_bzero_adj            text126       09F54
__end_of_ui_disp_menu_calib_diff_adj       text124       0661E
__end_of_ui_disp_menu_calib_pr_adj         text123       068D8
__end_of_ui_disp_menu_d_adj                text102       09EF8
__end_of_ui_disp_menu_density_adj          text122       09F26
__end_of_ui_disp_menu_epr_calib_adj        text121       070CA
__end_of_ui_disp_menu_epr_ilp_scale_adj    text120       07008
__end_of_ui_disp_menu_h_adj                text101       08A28
__end_of_ui_disp_menu_home                 text104       03A6E
__end_of_ui_disp_menu_poly_c_adj           text103       08F12
__end_of_ui_disp_menu_pos_adj              text100       0828A
__end_of_ui_disp_menu_pose_size            text99        09FFC
__end_of_ui_disp_menu_psw_adj              text97        09FD2
__end_of_ui_disp_menu_warn_t_adj           text96        0574E
__end_of_ui_disp_menu_warn_v_adj           text95        067F8
__end_of_ui_disp_menu_work_mode_adj        text94        0877A
__end_of_ui_disp_start_cs600               text1         07CE4
__end_of_ui_disp_xfloat_pt                 text105       053B8
__end_ofi2_rtc_alrm_irq_hook               text223       0A3F8
__end_ofi2_sys_ticker_irq_hook             text222       0A254
__initialization                           cinit         07888
__mediumconst                              mediumconst   0ECB0
__pbssBANK0                                bssBANK0      000E7
__pbssBANK1                                bssBANK1      00100
__pbssBANK2                                bssBANK2      00200
__pbssBANK3                                bssBANK3      00300
__pbssBANK4                                bssBANK4      00400
__pbssBANK5                                bssBANK5      00500
__pbssCOMRAM                               bssCOMRAM     00021
__pcinit                                   cinit         07888
__pcstackBANK0                             cstackBANK0   00060
__pcstackBANK1                             cstackBANK1   001FB
__pcstackBANK3                             cstackBANK3   003CA
__pcstackCOMRAM                            cstackCOMRAM  00001
__pdataBANK0                               dataBANK0     000FF
__pdataBANK1                               dataBANK1     001EE
__pidataBANK0                              idataBANK0    0A3F8
__pidataBANK1                              idataBANK1    0A3B6
__pintcode                                 intcode       00008
__pintcode_body                            intcode_body  06E7C
__pintcodelo                               intcodelo     00018
__pmediumconst                             mediumconst   0ECB0
__ptext0                                   text0         08FDA
__ptext1                                   text1         07C4C
__ptext10                                  text10        0A38C
__ptext100                                 text100       081FC
__ptext101                                 text101       089B8
__ptext102                                 text102       09ECA
__ptext103                                 text103       08EAE
__ptext104                                 text104       0382A
__ptext105                                 text105       05282
__ptext106                                 text106       0989E
__ptext107                                 text107       08A28
__ptext108                                 text108       0868C
__ptext109                                 text109       08D16
__ptext11                                  text11        09A8E
__ptext110                                 text110       09542
__ptext111                                 text111       08D7C
__ptext112                                 text112       08316
__ptext113                                 text113       08DE2
__ptext114                                 text114       08E48
__ptext115                                 text115       09596
__ptext116                                 text116       0943C
__ptext117                                 text117       00C96
__ptext118                                 text118       06010
__ptext119                                 text119       07246
__ptext12                                  text12        0A3E8
__ptext120                                 text120       06F44
__ptext121                                 text121       07008
__ptext122                                 text122       09EF8
__ptext123                                 text123       067F8
__ptext124                                 text124       06522
__ptext125                                 text125       09778
__ptext126                                 text126       09F26
__ptext127                                 text127       035D0
__ptext128                                 text128       09D1A
__ptext129                                 text129       069B6
__ptext13                                  text13        07A72
__ptext130                                 text130       09330
__ptext131                                 text131       08A96
__ptext132                                 text132       07CE4
__ptext133                                 text133       09162
__ptext134                                 text134       07D7C
__ptext135                                 text135       07E0C
__ptext136                                 text136       07E9C
__ptext137                                 text137       07F2C
__ptext138                                 text138       07FBC
__ptext139                                 text139       0804C
__ptext14                                  text14        0963C
__ptext140                                 text140       080DC
__ptext141                                 text141       0816C
__ptext142                                 text142       08B04
__ptext143                                 text143       09D4A
__ptext144                                 text144       09D7A
__ptext145                                 text145       09DAA
__ptext146                                 text146       09DDA
__ptext147                                 text147       09E0A
__ptext148                                 text148       09E3A
__ptext149                                 text149       08B70
__ptext15                                  text15        0921E
__ptext150                                 text150       04FC8
__ptext151                                 text151       079D0
__ptext152                                 text152       09100
__ptext153                                 text153       091C0
__ptext154                                 text154       09E6A
__ptext155                                 text155       06DB4
__ptext156                                 text156       07188
__ptext157                                 text157       09E9A
__ptext158                                 text158       06A8E
__ptext159                                 text159       094EC
__ptext16                                  text16        075DC
__ptext160                                 text160       0A1A8
__ptext161                                 text161       0A31E
__ptext162                                 text162       0851C
__ptext163                                 text163       0A124
__ptext164                                 text164       0A200
__ptext165                                 text165       0A1C6
__ptext166                                 text166       0A332
__ptext167                                 text167       059A2
__ptext168                                 text168       0A146
__ptext169                                 text169       00784
__ptext17                                  text17        0A26E
__ptext170                                 text170       01AB6
__ptext171                                 text171       0877A
__ptext172                                 text172       05AC4
__ptext173                                 text173       05F08
__ptext174                                 text174       000DC
__ptext175                                 text175       03358
__ptext176                                 text176       01F2A
__ptext177                                 text177       09B36
__ptext178                                 text178       0309E
__ptext179                                 text179       04728
__ptext18                                  text18        098E0
__ptext180                                 text180       01168
__ptext181                                 text181       0A346
__ptext182                                 text182       0A39A
__ptext183                                 text183       0A3A8
__ptext184                                 text184       048B8
__ptext185                                 text185       053B8
__ptext186                                 text186       0849E
__ptext187                                 text187       0938A
__ptext188                                 text188       0A254
__ptext189                                 text189       04E64
__ptext19                                  text19        0A284
__ptext190                                 text190       03A6E
__ptext191                                 text191       04022
__ptext192                                 text192       05CF4
__ptext193                                 text193       01610
__ptext194                                 text194       02352
__ptext195                                 text195       0574E
__ptext196                                 text196       041F0
__ptext197                                 text197       05878
__ptext198                                 text198       0828A
__ptext199                                 text199       097C6
__ptext2                                   text2         09BDE
__ptext20                                  text20        09AC6
__ptext200                                 text200       08F12
__ptext201                                 text201       07B12
__ptext202                                 text202       03C72
__ptext203                                 text203       09C4A
__ptext204                                 text204       05BDE
__ptext205                                 text205       0A04A
__ptext206                                 text206       04570
__ptext207                                 text207       09B6E
__ptext208                                 text208       087F0
__ptext209                                 text209       09494
__ptext21                                  text21        08864
__ptext210                                 text210       09C80
__ptext211                                 text211       0A188
__ptext212                                 text212       095EA
__ptext213                                 text213       08F76
__ptext214                                 text214       09BA6
__ptext215                                 text215       08598
__ptext216                                 text216       09A54
__ptext217                                 text217       0792C
__ptext219                                 text219       0A21C
__ptext22                                  text22        0A29A
__ptext220                                 text220       0A3F4
__ptext222                                 text222       0A238
__ptext223                                 text223       0A3F6
__ptext224                                 text224       00000
__ptext23                                  text23        09FFC
__ptext24                                  text24        0A2B0
__ptext25                                  text25        09CB6
__ptext26                                  text26        09AFE
__ptext27                                  text27        0A2C6
__ptext28                                  text28        0A2DC
__ptext29                                  text29        068D8
__ptext3                                   text3         092D6
__ptext30                                  text30        09C14
__ptext31                                  text31        0A2F2
__ptext32                                  text32        0661E
__ptext33                                  text33        0903C
__ptext34                                  text34        0927A
__ptext35                                  text35        07474
__ptext36                                  text36        0A168
__ptext37                                  text37        0968C
__ptext38                                  text38        093E4
__ptext39                                  text39        09920
__ptext4                                   text4         0A36C
__ptext40                                  text40        06B5C
__ptext41                                  text41        0A35A
__ptext42                                  text42        088D6
__ptext43                                  text43        08614
__ptext44                                  text44        099DC
__ptext45                                  text45        07BB0
__ptext46                                  text46        06C24
__ptext47                                  text47        070CA
__ptext48                                  text48        083A0
__ptext49                                  text49        0909E
__ptext5                                   text5         0A37C
__ptext50                                  text50        02A7C
__ptext51                                  text51        06116
__ptext52                                  text52        05E00
__ptext53                                  text53        09A18
__ptext54                                  text54        08C46
__ptext55                                  text55        08CAE
__ptext56                                  text56        08948
__ptext57                                  text57        096DC
__ptext58                                  text58        054EE
__ptext59                                  text59        07738
__ptext6                                   text6         09960
__ptext60                                  text60        0752C
__ptext61                                  text61        0621A
__ptext62                                  text62        07302
__ptext63                                  text63        02712
__ptext64                                  text64        077E0
__ptext65                                  text65        0999E
__ptext66                                  text66        0631E
__ptext67                                  text67        0A308
__ptext68                                  text68        05126
__ptext69                                  text69        0A070
__ptext7                                   text7         073BC
__ptext70                                  text70        09CEA
__ptext71                                  text71        0A1E4
__ptext72                                  text72        0A094
__ptext73                                  text73        0985A
__ptext74                                  text74        0A3F2
__ptext75                                  text75        0A3DC
__ptext76                                  text76        0972A
__ptext77                                  text77        04A2A
__ptext78                                  text78        04CFE
__ptext79                                  text79        08BDC
__ptext8                                   text8         0A3C4
__ptext80                                  text80        0A0B8
__ptext81                                  text81        03E50
__ptext82                                  text82        08420
__ptext83                                  text83        02DDA
__ptext84                                  text84        09F54
__ptext85                                  text85        06422
__ptext86                                  text86        0A0DC
__ptext87                                  text87        0A100
__ptext88                                  text88        0A024
__ptext89                                  text89        09814
__ptext9                                   text9         0A3D0
__ptext90                                  text90        043B4
__ptext91                                  text91        04B94
__ptext92                                  text92        09F7E
__ptext93                                  text93        0768A
__ptext94                                  text94        08704
__ptext95                                  text95        06716
__ptext96                                  text96        0561E
__ptext97                                  text97        09FA8
__ptext98                                  text98        06CEC
__ptext99                                  text99        09FD2
__ramtop                                   ramtop        01000
__size_of___aldiv                          (abs)         00000
__size_of___awdiv                          (abs)         00000
__size_of___awmod                          (abs)         00000
__size_of___down_dpr_calib                 (abs)         00000
__size_of___down_home_adj                  (abs)         00000
__size_of___down_pose_size                 (abs)         00000
__size_of___down_pr_calib                  (abs)         00000
__size_of___enter_menu_bar_scale           (abs)         00000
__size_of___enter_menu_calib_press         (abs)         00000
__size_of___enter_menu_calib_press_diff    (abs)         00000
__size_of___enter_menu_epr_calib           (abs)         00000
__size_of___enter_menu_epr_ilp_scale       (abs)         00000
__size_of___enter_menu_password            (abs)         00000
__size_of___enter_menu_poly_coeffic        (abs)         00000
__size_of___enter_menu_set_base_zero       (abs)         00000
__size_of___enter_menu_set_d               (abs)         00000
__size_of___enter_menu_set_density         (abs)         00000
__size_of___enter_menu_set_h               (abs)         00000
__size_of___enter_menu_set_pose_size       (abs)         00000
__size_of___enter_menu_warn_type           (abs)         00000
__size_of___enter_menu_warn_value          (abs)         00000
__size_of___enter_menu_work_mode           (abs)         00000
__size_of___exit_menu_to_home_unsave       (abs)         00000
__size_of___exp_10                         (abs)         00000
__size_of___fladd                          (abs)         00000
__size_of___fldiv                          (abs)         00000
__size_of___flge                           (abs)         00000
__size_of___flmul                          (abs)         00000
__size_of___flneg                          (abs)         00000
__size_of___fltol                          (abs)         00000
__size_of___int32_2_mflot32                (abs)         00000
__size_of___lbdiv                          (abs)         00000
__size_of___lldiv                          (abs)         00000
__size_of___lmul                           (abs)         00000
__size_of___lwdiv                          (abs)         00000
__size_of___lwmod                          (abs)         00000
__size_of___mflot32_2_int32                (abs)         00000
__size_of___set_long_bar_level_scale       (abs)         00000
__size_of___set_long_base_zero             (abs)         00000
__size_of___set_long_density               (abs)         00000
__size_of___set_long_work_mode             (abs)         00000
__size_of___set_short_diff_calib           (abs)         00000
__size_of___set_short_epr_ilp_scale        (abs)         00000
__size_of___set_short_epr_param            (abs)         00000
__size_of___set_short_poly_coefic          (abs)         00000
__size_of___set_short_pose_size            (abs)         00000
__size_of___set_short_pr_calib             (abs)         00000
__size_of___set_short_warn_type            (abs)         00000
__size_of___set_short_warn_value           (abs)         00000
__size_of___sys_data_save_write_flash      (abs)         00000
__size_of___up_adj_bar_level_scale         (abs)         00000
__size_of___up_adj_work_mode               (abs)         00000
__size_of___up_base_zero_adj               (abs)         00000
__size_of___up_density_adj                 (abs)         00000
__size_of___up_diff_calib_adj              (abs)         00000
__size_of___up_epr_calib_adj               (abs)         00000
__size_of___up_epr_ilp_scale_adj           (abs)         00000
__size_of___up_home_adj                    (abs)         00000
__size_of___up_poly_coefic_adj             (abs)         00000
__size_of___up_pose_size_adj               (abs)         00000
__size_of___up_pr_calib_adj                (abs)         00000
__size_of___up_psw_adj                     (abs)         00000
__size_of___up_warn_type_adj               (abs)         00000
__size_of___up_warn_value_adj              (abs)         00000
__size_of___wmul                           (abs)         00000
__size_of___x_arrange_str                  (abs)         00000
__size_of___x_sample_fifo                  (abs)         00000
__size_of___x_sample_fliter                (abs)         00000
__size_of___xxtofl                         (abs)         00000
__size_of_ads1115_init                     (abs)         00000
__size_of_ads1115_init_all_chip            (abs)         00000
__size_of_ads1115_read_conversion          (abs)         00000
__size_of_ads1115_read_reg                 (abs)         00000
__size_of_ads1115_set_data_rate            (abs)         00000
__size_of_ads1115_set_mux                  (abs)         00000
__size_of_ads1115_set_pga                  (abs)         00000
__size_of_ads1115_start_conversion         (abs)         00000
__size_of_ads1115_write_reg                (abs)         00000
__size_of_at24c02_init                     (abs)         00000
__size_of_at24c02_read_n_byte              (abs)         00000
__size_of_at24c02_write_n_byte             (abs)         00000
__size_of_cal_additional_pressute          (abs)         00000
__size_of_cal_diff_hight_level             (abs)         00000
__size_of_cal_diff_hight_to_vol_h          (abs)         00000
__size_of_cal_diff_hight_to_vol_v          (abs)         00000
__size_of_cal_diff_p_to_h                  (abs)         00000
__size_of_cal_diff_press                   (abs)         00000
__size_of_cal_press                        (abs)         00000
__size_of_cal_pt100_temperature_ex         (abs)         00000
__size_of_cal_pt100_temperature_in         (abs)         00000
__size_of_calib_data_init_diff_pr          (abs)         00000
__size_of_calib_data_init_pr               (abs)         00000
__size_of_calib_data_set_default_diff_pr   (abs)         00000
__size_of_calib_data_set_default_pr        (abs)         00000
__size_of_crc_append                       (abs)         00000
__size_of_crc_sum                          (abs)         00000
__size_of_crc_verify                       (abs)         00000
__size_of_data_init_all                    (abs)         00000
__size_of_data_sys_cal_v1                  (abs)         00000
__size_of_data_sys_cal_v2                  (abs)         00000
__size_of_data_sys_init                    (abs)         00000
__size_of_delay_ms                         (abs)         00000
__size_of_delay_us                         (abs)         00000
__size_of_event_process_rtc                (abs)         00000
__size_of_event_process_ticker             (abs)         00000
__size_of_event_process_time_out           (abs)         00000
__size_of_handler_interrupt_hight          (abs)         00000
__size_of_handler_interrupt_low            (abs)         00000
__size_of_iic_received_byte                (abs)         00000
__size_of_iic_received_byte_if_ack         (abs)         00000
__size_of_iic_send_ack                     (abs)         00000
__size_of_iic_send_byte                    (abs)         00000
__size_of_iic_start                        (abs)         00000
__size_of_iic_stop                         (abs)         00000
__size_of_iic_waite_ack                    (abs)         00000
__size_of_in_adc_init                      (abs)         00000
__size_of_in_adc_start_and_read            (abs)         00000
__size_of_key_adj_value_fixed              (abs)         00000
__size_of_key_adj_value_float              (abs)         00000
__size_of_key_polling                      (abs)         00000
__size_of_key_process                      (abs)         00000
__size_of_key_process_down                 (abs)         00000
__size_of_key_process_set                  (abs)         00000
__size_of_key_process_set_down_long        (abs)         00000
__size_of_key_process_set_long             (abs)         00000
__size_of_key_process_up                   (abs)         00000
__size_of_key_shift_loc                    (abs)         00000
__size_of_key_waite_release                (abs)         00000
__size_of_lcd_bl_on                        (abs)         00000
__size_of_lcd_config                       (abs)         00000
__size_of_lcd_disp_all                     (abs)         00000
__size_of_lcd_disp_chr_loc_0               (abs)         00000
__size_of_lcd_disp_chr_loc_1               (abs)         00000
__size_of_lcd_disp_chr_loc_2               (abs)         00000
__size_of_lcd_disp_chr_loc_3               (abs)         00000
__size_of_lcd_disp_chr_loc_4               (abs)         00000
__size_of_lcd_disp_chr_loc_5               (abs)         00000
__size_of_lcd_disp_chr_loc_6               (abs)         00000
__size_of_lcd_disp_chr_loc_7               (abs)         00000
__size_of_lcd_disp_dp_loc_0                (abs)         00000
__size_of_lcd_disp_dp_loc_1                (abs)         00000
__size_of_lcd_disp_dp_loc_2                (abs)         00000
__size_of_lcd_disp_dp_loc_4                (abs)         00000
__size_of_lcd_disp_dp_loc_5                (abs)         00000
__size_of_lcd_disp_dp_loc_6                (abs)         00000
__size_of_lcd_disp_get_code                (abs)         00000
__size_of_lcd_disp_level                   (abs)         00000
__size_of_lcd_disp_level_bar               (abs)         00000
__size_of_lcd_disp_logo                    (abs)         00000
__size_of_lcd_disp_refresh                 (abs)         00000
__size_of_lcd_disp_unit_1st_m              (abs)         00000
__size_of_lcd_disp_unit_1st_m3             (abs)         00000
__size_of_lcd_disp_unit_2nd_m              (abs)         00000
__size_of_lcd_disp_unit_2nd_m3             (abs)         00000
__size_of_lcd_disp_unit_mpa                (abs)         00000
__size_of_lcd_disp_unit_t                  (abs)         00000
__size_of_lcd_disp_unit_temperature        (abs)         00000
__size_of_lcd_init                         (abs)         00000
__size_of_lcd_set_com_seg                  (abs)         00000
__size_of_lcd_show_chr                     (abs)         00000
__size_of_lcd_show_dp                      (abs)         00000
__size_of_lcd_show_string                  (abs)         00000
__size_of_lcd_show_string_l0               (abs)         00000
__size_of_lcd_show_string_l1               (abs)         00000
__size_of_m_flash_erase                    (abs)         00000
__size_of_m_flash_read                     (abs)         00000
__size_of_m_flash_unlock                   (abs)         00000
__size_of_m_flash_write                    (abs)         00000
__size_of_m_int16_2_str_4                  (abs)         00000
__size_of_m_int8_2_hex                     (abs)         00000
__size_of_m_interp1_cal_p_t                (abs)         00000
__size_of_m_interp1_cal_p_v                (abs)         00000
__size_of_m_interp1_float_fast             (abs)         00000
__size_of_m_mem_cpy                        (abs)         00000
__size_of_m_mem_cpy_len                    (abs)         00000
__size_of_m_mem_set                        (abs)         00000
__size_of_main                             (abs)         00000
__size_of_rtc_alrm_irq_hook                (abs)         00000
__size_of_rtc_init                         (abs)         00000
__size_of_rtc_set                          (abs)         00000
__size_of_rtcc_reg_wr_disable              (abs)         00000
__size_of_rtcc_reg_wr_enable               (abs)         00000
__size_of_sample_all_power_off             (abs)         00000
__size_of_sample_all_power_on              (abs)         00000
__size_of_sample_call_cal_diff_pr          (abs)         00000
__size_of_sample_call_cal_in_soc           (abs)         00000
__size_of_sample_call_cal_pr               (abs)         00000
__size_of_sample_call_in_ticker            (abs)         00000
__size_of_sample_diff_pr_chip_fast         (abs)         00000
__size_of_sample_diff_pr_fliter            (abs)         00000
__size_of_sample_function_enable_fi_in_rtc (abs)         00000
__size_of_sample_in_soc_adc_ch             (abs)         00000
__size_of_sample_pr_chip_fast              (abs)         00000
__size_of_sample_variable_init             (abs)         00000
__size_of_soc_init                         (abs)         00000
__size_of_sys_ticker_init                  (abs)         00000
__size_of_sys_ticker_irq_hook              (abs)         00000
__size_of_ticker_dly                       (abs)         00000
__size_of_ui_disp_adj_xfixed_pt            (abs)         00000
__size_of_ui_disp_adj_xfixed_pt_dp         (abs)         00000
__size_of_ui_disp_adj_xfloat_pt            (abs)         00000
__size_of_ui_disp_clear_num_dp             (abs)         00000
__size_of_ui_disp_menu                     (abs)         00000
__size_of_ui_disp_menu_bar_full_adj        (abs)         00000
__size_of_ui_disp_menu_bzero_adj           (abs)         00000
__size_of_ui_disp_menu_calib_diff_adj      (abs)         00000
__size_of_ui_disp_menu_calib_pr_adj        (abs)         00000
__size_of_ui_disp_menu_d_adj               (abs)         00000
__size_of_ui_disp_menu_density_adj         (abs)         00000
__size_of_ui_disp_menu_epr_calib_adj       (abs)         00000
__size_of_ui_disp_menu_epr_ilp_scale_adj   (abs)         00000
__size_of_ui_disp_menu_h_adj               (abs)         00000
__size_of_ui_disp_menu_home                (abs)         00000
__size_of_ui_disp_menu_poly_c_adj          (abs)         00000
__size_of_ui_disp_menu_pos_adj             (abs)         00000
__size_of_ui_disp_menu_pose_size           (abs)         00000
__size_of_ui_disp_menu_psw_adj             (abs)         00000
__size_of_ui_disp_menu_warn_t_adj          (abs)         00000
__size_of_ui_disp_menu_warn_v_adj          (abs)         00000
__size_of_ui_disp_menu_work_mode_adj       (abs)         00000
__size_of_ui_disp_start_cs600              (abs)         00000
__size_of_ui_disp_xfloat_pt                (abs)         00000
__size_ofi2_rtc_alrm_irq_hook              (abs)         00000
__size_ofi2_sys_ticker_irq_hook            (abs)         00000
__smallconst                               smallconst    00000
_adc_exPt100                               bssBANK1      0016A
_adc_iPrEx                                 bssBANK1      00156
_adc_iRef                                  bssBANK1      00166
_adc_ibat                                  bssBANK1      00168
_adc_inPt100                               bssBANK1      0016E
_adc_pressure                              bssBANK1      0016C
_adjLocation                               bssCOMRAM     0003F
_adjValue                                  bssCOMRAM     00039
_ads1115Chip0                              bssBANK1      00170
_ads1115Chip1                              bssBANK2      002F0
_ads1115_init                              text217       0792C
_ads1115_init_all_chip                     text216       09A54
_ads1115_read_conversion                   text89        09814
_ads1115_read_reg                          text90        043B4
_ads1115_set_data_rate                     text88        0A024
_ads1115_set_mux                           text87        0A100
_ads1115_set_pga                           text86        0A0DC
_ads1115_start_conversion                  text84        09F54
_ads1115_write_reg                         text85        06422
_at24c02Ch0                                bssBANK1      00180
_at24c02Ch1                                bssBANK1      0018B
_at24c02_init                              text215       08598
_at24c02_read_n_byte                       text206       04570
_at24c02_write_n_byte                      text204       05BDE
_auchCRCHi                                 mediumconst   0EDB1
_auchCRCLo                                 mediumconst   0ECB1
_cal_additional_pressute                   text164       0A200
_cal_diff_hight_level                      text178       0309E
_cal_diff_hight_level$5884                 cstackBANK0   000C4
_cal_diff_hight_level$5885                 cstackBANK0   000C8
_cal_diff_hight_to_vol_h                   text175       03358
_cal_diff_hight_to_vol_v                   text174       000DC
_cal_diff_hight_to_vol_v$5886              cstackBANK3   003CA
_cal_diff_p_to_h                           text173       05F08
_cal_diff_press                            text167       059A2
_cal_press                                 text162       0851C
_cal_pt100_temperature_ex                  text161       0A31E
_cal_pt100_temperature_in                  text166       0A332
_calibCol                                  bssCOMRAM     00030
_calibRow                                  bssCOMRAM     00031
_calib_data_init_diff_pr                   text197       05878
_calib_data_init_pr                        text195       0574E
_calib_data_set_default_diff_pr            text202       03C72
_calib_data_set_default_pr                 text196       041F0
_crc_append                                text200       08F12
_crc_sum                                   text201       07B12
_crc_verify                                text198       0828A
_data_init_all                             text183       0A3A8
_data_sys_cal_v1                           text190       03A6E
_data_sys_cal_v1$5878                      cstackBANK0   000C6
_data_sys_cal_v1$5879                      cstackBANK0   000CA
_data_sys_cal_v1$5880                      cstackBANK0   000CE
_data_sys_cal_v2                           text189       04E64
_data_sys_cal_v2$5881                      cstackBANK0   000C6
_data_sys_cal_v2$5882                      cstackBANK0   000CA
_data_sys_init                             text184       048B8
_defalutRtc                                dataBANK1     001F4
_defultSystemData                          mediumconst   0F23F
_delay_ms                                  text205       0A04A
_delay_us                                  text214       09BA6
_diffPrChipSampCh                          bssBANK0      000FA
_diffPrChipSampleCount                     bssBANK0      000FB
_diffPrChipSampleFinish                    bssBANK0      000F9
_diffPrChipSampleTimer                     bssBANK1      00160
_diff_prCalibTabDef                        bssBANK3      00310
_dlyTicker                                 bssBANK1      0015A
_dlyTickerEn                               bssCOMRAM     0002B
_dwm                                       bssBANK0      000FD
_event_process_rtc                         text92        09F7E
_event_process_ticker                      text75        0A3DC
_event_process_time_out                    text74        0A3F2
_flashTestbuf                              mediumconst   0F32F
_glNoEventTimeOut                          dataBANK0     000FF
_glRtc                                     bssBANK1      00133
_glTicker                                  bssBANK1      0013A
_glbEvent                                  bssCOMRAM     0002E
_globleBuffer                              bssBANK5      00500
_hKcy                                      mediumconst   0F0AB
_hKel                                      mediumconst   0EF17
_handler_interrupt_hight                   intcode       00008
_handler_interrupt_low                     intcodelo     00018
_iic_received_byte                         text213       08F76
_iic_received_byte_if_ack                  text211       0A188
_iic_send_ack                              text212       095EA
_iic_send_byte                             text208       087F0
_iic_start                                 text207       09B6E
_iic_stop                                  text210       09C80
_iic_waite_ack                             text209       09494
_inSocAdcSampleCh                          bssBANK0      000F4
_inSocAdcSampleCount                       bssBANK0      000F5
_inSocAdcSampleFinish                      bssBANK0      000F3
_inSocAdcSampleTimer                       bssBANK1      0015C
_in_adc_init                               text80        0A0B8
_in_adc_start_and_read                     text79        08BDC
_keyValue                                  bssBANK0      000FC
_key_adj_value_fixed                       text32        0661E
_key_adj_value_float                       text29        068D8
_key_polling                               text15        0921E
_key_process                               text13        07A72
_key_process_down                          text68        05126
_key_process_set                           text45        07BB0
_key_process_set_down_long                 text40        06B5C
_key_process_set_long                      text35        07474
_key_process_up                            text16        075DC
_key_shift_loc                             text73        0985A
_key_waite_release                         text14        0963C
_lcdTwinkle                                bssCOMRAM     00034
_lcd_bl_on                                 text12        0A3E8
_lcd_config                                text11        09A8E
_lcd_disp_all                              text157       09E9A
_lcd_disp_chr_loc_0                        text141       0816C
_lcd_disp_chr_loc_1                        text140       080DC
_lcd_disp_chr_loc_2                        text139       0804C
_lcd_disp_chr_loc_3                        text138       07FBC
_lcd_disp_chr_loc_4                        text137       07F2C
_lcd_disp_chr_loc_5                        text136       07E9C
_lcd_disp_chr_loc_6                        text135       07E0C
_lcd_disp_chr_loc_7                        text134       07D7C
_lcd_disp_dp_loc_0                         text148       09E3A
_lcd_disp_dp_loc_1                         text147       09E0A
_lcd_disp_dp_loc_2                         text146       09DDA
_lcd_disp_dp_loc_4                         text145       09DAA
_lcd_disp_dp_loc_5                         text144       09D7A
_lcd_disp_dp_loc_6                         text143       09D4A
_lcd_disp_get_code                         text133       09162
_lcd_disp_level                            text116       0943C
_lcd_disp_level_bar                        text117       00C96
_lcd_disp_logo                             text154       09E6A
_lcd_disp_refresh                          text152       09100
_lcd_disp_unit_1st_m                       text115       09596
_lcd_disp_unit_1st_m3                      text114       08E48
_lcd_disp_unit_2nd_m                       text113       08DE2
_lcd_disp_unit_2nd_m3                      text112       08316
_lcd_disp_unit_mpa                         text111       08D7C
_lcd_disp_unit_t                           text110       09542
_lcd_disp_unit_temperature                 text109       08D16
_lcd_init                                  text10        0A38C
_lcd_set_com_seg                           text155       06DB4
_lcd_show_chr                              text132       07CE4
_lcd_show_dp                               text142       08B04
_lcd_show_string                           text131       08A96
_lcd_show_string_l0                        text107       08A28
_lcd_show_string_l1                        text106       0989E
_m_flash_erase                             text187       0938A
_m_flash_read                              text186       0849E
_m_flash_unlock                            text188       0A254
_m_flash_write                             text185       053B8
_m_floatAdj                                bssCOMRAM     00035
_m_int16_2_str_4                           text150       04FC8
_m_int8_2_hex                              text3         092D6
_m_interp1_cal_p_t                         text170       01AB6
_m_interp1_cal_p_v                         text169       00784
_m_interp1_float_fast                      text176       01F2A
_m_interp1_float_fast$5883                 cstackBANK0   000DC
_m_mem_cpy                                 text149       08B70
_m_mem_cpy_len                             text199       097C6
_m_mem_set                                 text168       0A146
_main                                      text0         08FDA
_menu                                      bssCOMRAM     00033
_pAdjValue                                 bssBANK1      00162
_pAds1115DiffPrObj                         bssBANK0      000EF
_pAds1115PrObj                             bssCOMRAM     00025
_pLCD                                      bssBANK1      00100
_p_prEepromObj                             bssCOMRAM     00027
_passWord                                  bssCOMRAM     0003D
_pcf8574                                   bssBANK1      00118
_pcf8574Value                              bssCOMRAM     0002D
_pdiff_prEepromObj                         bssCOMRAM     00029
_prCalibTabDef                             bssBANK4      00400
_prChipSampleCh                            bssBANK0      000F8
_prChipSampleCount                         bssBANK0      000F7
_rtDiffPrBuf                               bssBANK3      00300
_rtDiffPressure                            bssBANK1      00152
_rtExPressure                              bssBANK1      0012B
_rtHight                                   bssBANK0      000EB
_rtLevel                                   bssBANK0      000FE
_rtPressure                                bssBANK0      000E7
_rtTemperatureEx                           bssBANK1      00146
_rtTemperatureIn                           bssBANK1      0014A
_rtVolume                                  bssCOMRAM     00021
_rtWeight                                  bssBANK1      0014E
_rtc_alrm_irq_hook                         text220       0A3F4
_rtc_init                                  text6         09960
_rtc_set                                   text7         073BC
_rtcc_reg_wr_disable                       text9         0A3D0
_rtcc_reg_wr_enable                        text8         0A3C4
_sampBufBatInSoc                           bssBANK1      0019E
_sampBufDiffPr_D01                         bssBANK1      001DE
_sampBufDiffPr_D23                         bssBANK1      001D6
_sampBufDiffPr_S1                          bssBANK1      001CE
_sampBufExPr0InSoc                         bssBANK1      001AE
_sampBufExPr1InSoc                         bssBANK1      001A6
_sampBufPr                                 bssBANK1      001B6
_sampBufPt100ExA                           bssBANK1      001C6
_sampBufPt100ExB                           bssBANK1      001BE
_sampBufRefInSoc                           bssBANK1      00196
_sample_all_power_off                      text182       0A39A
_sample_all_power_on                       text181       0A346
_sample_call_cal_diff_pr                   text165       0A1C6
_sample_call_cal_in_soc                    text163       0A124
_sample_call_cal_pr                        text160       0A1A8
_sample_call_in_ticker                     text76        0972A
_sample_diff_pr_chip_fast                  text81        03E50
_sample_diff_pr_fliter                     text82        08420
_sample_function_enable_fi_in_rtc          text158       06A8E
_sample_in_soc_adc_ch                      text78        04CFE
_sample_pr_chip_fast                       text77        04A2A
_sample_variable_init                      text159       094EC
_sensorPowerOn                             bssCOMRAM     0002F
_sensorSimpleEn                            bssBANK0      000F2
_sensorSimpleTsLong                        bssBANK0      000F1
_soc_init                                  text4         0A36C
_stRTCCFGbits                              (abs)         00F5F
_stSysData                                 bssBANK2      00200
_st_Bj                                     bssCOMRAM     0002C
_subMenu                                   bssCOMRAM     00032
_sys_ticker_init                           text5         0A37C
_sys_ticker_irq_hook                       text219       0A21C
_ticker_dly                                text2         09BDE
_tmpx                                      bssBANK3      003B2
_ui_disp_adj_xfixed_pt                     text98        06CEC
_ui_disp_adj_xfixed_pt_dp                  text129       069B6
_ui_disp_adj_xfloat_pt                     text127       035D0
_ui_disp_clear_num_dp                      text130       09330
_ui_disp_menu                              text93        0768A
_ui_disp_menu_bar_full_adj                 text128       09D1A
_ui_disp_menu_bzero_adj                    text126       09F26
_ui_disp_menu_calib_diff_adj               text124       06522
_ui_disp_menu_calib_pr_adj                 text123       067F8
_ui_disp_menu_d_adj                        text102       09ECA
_ui_disp_menu_density_adj                  text122       09EF8
_ui_disp_menu_epr_calib_adj                text121       07008
_ui_disp_menu_epr_ilp_scale_adj            text120       06F44
_ui_disp_menu_h_adj                        text101       089B8
_ui_disp_menu_home                         text104       0382A
_ui_disp_menu_poly_c_adj                   text103       08EAE
_ui_disp_menu_pos_adj                      text100       081FC
_ui_disp_menu_pose_size                    text99        09FD2
_ui_disp_menu_psw_adj                      text97        09FA8
_ui_disp_menu_warn_t_adj                   text96        0561E
_ui_disp_menu_warn_v_adj                   text95        06716
_ui_disp_menu_work_mode_adj                text94        08704
_ui_disp_start_cs600                       text1         07C4C
_ui_disp_xfloat_pt                         text105       05282
_userTicker_ms                             bssBANK1      00164
_x_prDiffData                              bssBANK1      001E6
ads1115_init@pAds1115                      cstackBANK0   00060
ads1115_init@slvaddr                       cstackBANK0   00062
ads1115_read_conversion@pAds1115           cstackBANK0   0006E
ads1115_read_conversion@result             cstackBANK0   00071
ads1115_read_reg@addr                      cstackBANK0   0006A
ads1115_read_reg@pAds1115                  cstackBANK0   00068
ads1115_read_reg@t16                       cstackBANK0   0006C
ads1115_set_data_rate@dr                   cstackBANK0   00062
ads1115_set_data_rate@pAds1115             cstackBANK0   00060
ads1115_set_mux@mux                        cstackBANK0   00062
ads1115_set_mux@pAds1115                   cstackBANK0   00060
ads1115_set_pga@pAds1115                   cstackBANK0   00060
ads1115_set_pga@pga                        cstackBANK0   00062
ads1115_start_conversion@pAds1115          cstackBANK0   0006B
ads1115_write_reg@addr                     cstackBANK0   00068
ads1115_write_reg@pAds1115                 cstackBANK0   00066
ads1115_write_reg@value                    cstackBANK0   00069
at24c02_init@pAt24c02                      cstackBANK0   00060
at24c02_init@slv                           cstackBANK0   00062
at24c02_read_n_byte@addr                   cstackBANK0   0006A
at24c02_read_n_byte@buf                    cstackBANK0   0006B
at24c02_read_n_byte@i                      cstackBANK0   00073
at24c02_read_n_byte@len                    cstackBANK0   0006D
at24c02_read_n_byte@pAt24c02               cstackBANK0   00068
at24c02_write_n_byte@addr                  cstackBANK0   00068
at24c02_write_n_byte@buf                   cstackBANK0   00069
at24c02_write_n_byte@i                     cstackBANK0   0006D
at24c02_write_n_byte@len                   cstackBANK0   0006B
at24c02_write_n_byte@pAt24c02              cstackBANK0   00066
btemp                                      temp          00040
cal_additional_pressute@index              cstackCOMRAM  00020
cal_diff_hight_level@f1                    cstackBANK0   000D0
cal_diff_hight_level@f2                    cstackBANK0   000CC
cal_diff_hight_to_vol_h@f1                 cstackBANK3   003D6
cal_diff_hight_to_vol_h@f2                 cstackBANK3   003CE
cal_diff_hight_to_vol_h@h                  cstackBANK1   001FB
cal_diff_hight_to_vol_h@v1                 cstackBANK3   003D2
cal_diff_hight_to_vol_h@v2                 cstackBANK3   003CA
cal_diff_hight_to_vol_v@D                  cstackBANK3   003D6
cal_diff_hight_to_vol_v@f1                 cstackBANK3   003DA
cal_diff_hight_to_vol_v@h                  cstackBANK1   001FB
cal_diff_hight_to_vol_v@v1                 cstackBANK3   003CE
cal_diff_hight_to_vol_v@v2                 cstackBANK3   003D2
cal_diff_p_to_h@f1                         cstackBANK0   000C8
cal_diff_p_to_h@f2                         cstackBANK0   000C4
cal_diff_p_to_h@xin                        cstackBANK0   000C2
cal_diff_press@i                           cstackBANK3   003E2
cal_diff_press@tabrow                      cstackBANK3   003DE
cal_diff_press@xin                         cstackBANK3   003E0
cal_press@F7856                            bssBANK1      00123
cal_press@ret                              cstackBANK0   0009A
cal_press@tabrow                           cstackBANK0   0009B
cal_press@xin                              cstackBANK0   0009D
calib_data_init_diff_pr@buf                cstackBANK0   00079
calib_data_init_diff_pr@ret                cstackBANK0   00076
calib_data_init_diff_pr@t16                cstackBANK0   00077
calib_data_init_pr@buf                     cstackBANK0   00079
calib_data_init_pr@ret                     cstackBANK0   00076
calib_data_init_pr@t16                     cstackBANK0   00077
calib_data_set_default_diff_pr@i           cstackBANK0   0006F
calib_data_set_default_diff_pr@j           cstackBANK0   0006E
calib_data_set_default_pr@i                cstackBANK0   0006E
calib_data_set_default_pr@j                cstackBANK0   0006F
crc_append@crc                             cstackBANK0   00072
crc_append@message                         cstackBANK0   0006C
crc_append@n                               cstackBANK0   0006E
crc_sum@len                                cstackBANK0   00066
crc_sum@puchMsg                            cstackBANK0   00060
crc_sum@uIndex                             cstackBANK0   00068
crc_sum@uchCRCHi                           cstackBANK0   0006A
crc_sum@uchCRCLo                           cstackBANK0   0006B
crc_sum@usDataLen                          cstackBANK0   00062
crc_verify@crccal                          cstackBANK0   00072
crc_verify@expected                        cstackBANK0   00074
crc_verify@message                         cstackBANK0   0006C
crc_verify@n                               cstackBANK0   0006E
data_sys_cal_v1@f                          cstackBANK0   000D6
data_sys_cal_v1@h                          cstackBANK0   000D2
data_sys_cal_v1@r                          cstackBANK0   000DA
data_sys_cal_v1@stp                        cstackBANK0   000C2
data_sys_cal_v2@d                          cstackBANK0   000D2
data_sys_cal_v2@f                          cstackBANK0   000CE
data_sys_cal_v2@stp                        cstackBANK0   000C2
data_sys_init@buf                          cstackBANK0   000E3
data_sys_init@ret                          cstackBANK0   000E0
data_sys_init@stp                          cstackBANK0   000E1
data_sys_init@t16                          cstackBANK0   000DE
delay_ms@dly                               cstackBANK0   00064
delay_us@dly                               cstackBANK0   00060
delay_us@i                                 cstackBANK0   00062
end_of_initialization                      cinit         0791E
event_process_rtc@ret                      cstackBANK1   001FF
event_process_ticker@ret                   cstackBANK1   001FF
i2_rtc_alrm_irq_hook                       text223       0A3F6
i2_sys_ticker_irq_hook                     text222       0A238
iic_received_byte@i                        cstackBANK0   00065
iic_received_byte@ret                      cstackBANK0   00064
iic_received_byte_if_ack@ack               cstackBANK0   00066
iic_received_byte_if_ack@ret               cstackBANK0   00067
iic_send_ack@ack                           cstackCOMRAM  00020
iic_send_byte@i                            cstackBANK0   00065
iic_send_byte@x                            cstackBANK0   00064
iic_waite_ack@timeout                      cstackCOMRAM  00020
in_adc_start_and_read@ch                   cstackBANK0   00066
in_adc_start_and_read@ret                  cstackBANK0   00067
int$flags                                  temp          00040
int_func                                   intcode_body  06E7C
intlevel0                                  text          00000
intlevel1                                  text          00000
intlevel2                                  text          00000
intlevel3                                  text          00000
key_adj_value_fixed@dloc                   cstackBANK0   00071
key_adj_value_fixed@loc                    cstackBANK0   00070
key_adj_value_fixed@t16                    cstackBANK0   00073
key_adj_value_fixed@value                  cstackBANK0   0006E
key_adj_value_float@loc                    cstackBANK0   00077
key_adj_value_float@mfp                    cstackBANK0   00075
key_adj_value_float@t16                    cstackBANK0   00078
key_adj_value_float@t8                     cstackBANK0   0007A
key_polling@ktemp                          cstackBANK0   00066
key_polling@t8                             cstackBANK0   00067
key_process@key                            cstackBANK3   003D5
key_process@tm                             cstackBANK3   003D3
key_shift_loc@loc                          cstackBANK0   00060
key_shift_loc@max                          cstackBANK0   00063
key_shift_loc@min                          cstackBANK0   00062
key_shift_loc@t8                           cstackCOMRAM  00020
key_waite_release@key                      cstackBANK0   0006A
key_waite_release@t8                       cstackCOMRAM  00020
key_waite_release@timeout                  cstackBANK0   00068
lcd_disp_all@i                             cstackBANK0   00061
lcd_disp_all@x                             cstackBANK0   00060
lcd_disp_chr_loc_0@code                    cstackCOMRAM  00020
lcd_disp_chr_loc_1@code                    cstackCOMRAM  00020
lcd_disp_chr_loc_2@code                    cstackCOMRAM  00020
lcd_disp_chr_loc_3@code                    cstackCOMRAM  00020
lcd_disp_chr_loc_4@code                    cstackCOMRAM  00020
lcd_disp_chr_loc_5@code                    cstackCOMRAM  00020
lcd_disp_chr_loc_6@code                    cstackCOMRAM  00020
lcd_disp_chr_loc_7@code                    cstackCOMRAM  00020
lcd_disp_dp_loc_0@dp                       cstackCOMRAM  00020
lcd_disp_dp_loc_1@dp                       cstackCOMRAM  00020
lcd_disp_dp_loc_2@dp                       cstackCOMRAM  00020
lcd_disp_dp_loc_4@dp                       cstackCOMRAM  00020
lcd_disp_dp_loc_5@dp                       cstackCOMRAM  00020
lcd_disp_dp_loc_6@dp                       cstackCOMRAM  00020
lcd_disp_get_code@chr                      cstackBANK0   00060
lcd_disp_get_code@i                        cstackBANK0   00062
lcd_disp_get_code@ret                      cstackBANK0   00061
lcd_disp_level@i                           cstackBANK0   00073
lcd_disp_level@level                       cstackBANK0   00072
lcd_disp_level_bar@__bar                   cstackBANK0   00070
lcd_disp_level_bar@bar                     cstackBANK0   00071
lcd_disp_level_bar@show                    cstackCOMRAM  00020
lcd_disp_logo@show                         cstackCOMRAM  00020
lcd_disp_unit_1st_m3@show                  cstackCOMRAM  00020
lcd_disp_unit_1st_m@show                   cstackCOMRAM  00020
lcd_disp_unit_2nd_m3@show                  cstackCOMRAM  00020
lcd_disp_unit_2nd_m@show                   cstackCOMRAM  00020
lcd_disp_unit_mpa@show                     cstackCOMRAM  00020
lcd_disp_unit_t@show                       cstackCOMRAM  00020
lcd_disp_unit_temperature@show             cstackCOMRAM  00020
lcd_set_com_seg@bits                       cstackBANK0   0006F
lcd_set_com_seg@com                        cstackBANK0   0006D
lcd_set_com_seg@offset                     cstackBANK0   0006E
lcd_set_com_seg@seg                        cstackBANK0   00068
lcd_set_com_seg@show                       cstackBANK0   00069
lcd_show_chr@chr                           cstackBANK0   00070
lcd_show_chr@code                          cstackBANK0   00072
lcd_show_chr@loc                           cstackBANK0   00071
lcd_show_dp@loc                            cstackBANK0   00071
lcd_show_dp@show                           cstackBANK0   00070
lcd_show_string@str                        cstackBANK0   00073
lcd_show_string@t8                         cstackBANK0   00075
lcd_show_string_l0@str                     cstackBANK0   00073
lcd_show_string_l0@t8                      cstackBANK0   00075
lcd_show_string_l1@str                     cstackBANK0   00073
lcd_show_string_l1@t8                      cstackBANK0   00075
m_flash_erase@addr                         cstackBANK0   00060
m_flash_erase@t32                          cstackBANK0   00064
m_flash_read@addr                          cstackBANK0   00060
m_flash_read@buf                           cstackBANK0   00064
m_flash_read@i                             cstackBANK0   00068
m_flash_read@len                           cstackBANK0   00066
m_flash_read@t32                           cstackBANK0   0006A
m_flash_unlock@oldGIE                      cstackCOMRAM  00020
m_flash_write@addr                         cstackBANK0   0006E
m_flash_write@buf                          cstackBANK0   00072
m_flash_write@i                            cstackBANK0   00079
m_flash_write@j                            cstackBANK0   0007E
m_flash_write@len                          cstackBANK0   00074
m_flash_write@pageAddr                     cstackBANK0   0007A
m_flash_write@t16                          cstackBANK0   00081
m_flash_write@tmpBuf                       cstackBANK0   0007F
m_flash_write@writeTimes                   cstackBANK0   00078
m_int16_2_str_4@buf                        cstackBANK0   00068
m_int16_2_str_4@x                          cstackBANK0   0006A
m_int8_2_hex@b                             cstackBANK0   00062
m_int8_2_hex@str                           cstackBANK0   00060
m_int8_2_hex@t8                            cstackCOMRAM  00020
m_interp1_cal_p_t@i                        cstackBANK0   00098
m_interp1_cal_p_t@pr                       cstackBANK0   00092
m_interp1_cal_p_t@t16                      cstackBANK0   00096
m_interp1_cal_p_t@tmpx                     cstackBANK0   0007A
m_interp1_cal_p_t@tmpxLen                  cstackBANK0   0007E
m_interp1_cal_p_t@x                        cstackBANK0   0008E
m_interp1_cal_p_t@xin                      cstackBANK0   0007C
m_interp1_cal_p_t@y                        cstackBANK0   0008A
m_interp1_cal_p_v@i                        cstackBANK0   00099
m_interp1_cal_p_v@pr                       cstackBANK0   00095
m_interp1_cal_p_v@t16                      cstackBANK0   00093
m_interp1_cal_p_v@tabrow                   cstackBANK0   0007A
m_interp1_cal_p_v@x                        cstackBANK0   0008F
m_interp1_cal_p_v@xin                      cstackBANK0   0007C
m_interp1_cal_p_v@xout                     cstackBANK0   0007E
m_interp1_cal_p_v@y                        cstackBANK0   0008B
m_interp1_float_fast@f                     cstackBANK0   000E0
m_interp1_float_fast@i                     cstackBANK0   000E4
m_interp1_float_fast@in                    cstackBANK0   000C6
m_interp1_float_fast@len                   cstackBANK0   000CA
m_interp1_float_fast@tab                   cstackBANK0   000C4
m_interp1_float_fast@x                     cstackBANK0   000D4
m_interp1_float_fast@y                     cstackBANK0   000D8
m_mem_cpy@d                                cstackBANK0   00060
m_mem_cpy@s                                cstackBANK0   00062
m_mem_cpy_len@d                            cstackBANK0   00060
m_mem_cpy_len@len                          cstackBANK0   00064
m_mem_cpy_len@s                            cstackBANK0   00062
m_mem_set@buf                              cstackBANK0   00060
m_mem_set@len                              cstackBANK0   00063
m_mem_set@x                                cstackBANK0   00062
rtc_set@rtc                                cstackBANK0   00060
rtc_set@stp                                cstackBANK0   00062
sample_call_in_ticker@ret                  cstackBANK0   000E6
sample_diff_pr_chip_fast@t16               cstackBANK0   00091
sample_diff_pr_fliter@xin                  cstackBANK0   0008F
sample_function_enable_fi_in_rtc@ret       cstackBANK0   000E6
sample_in_soc_adc_ch@t16                   cstackBANK0   0008A
sample_pr_chip_fast@ret                    cstackBANK0   0008A
sample_pr_chip_fast@t16                    cstackBANK0   0008B
stackhi                                    (abs)         00F53
stacklo                                    (abs)         00600
start                                      init          000D8
start_initialization                       cinit         07888
ticker_dly@ms                              cstackBANK0   00060
ui_disp_adj_xfixed_pt@buf                  cstackBANK0   0007D
ui_disp_adj_xfixed_pt@loc                  cstackBANK0   0007A
ui_disp_adj_xfixed_pt@str                  cstackBANK0   00076
ui_disp_adj_xfixed_pt@x                    cstackBANK0   00078
ui_disp_adj_xfixed_pt_dp@buf               cstackBANK0   0007E
ui_disp_adj_xfixed_pt_dp@dploc             cstackBANK0   0007B
ui_disp_adj_xfixed_pt_dp@loc               cstackBANK0   0007A
ui_disp_adj_xfixed_pt_dp@str               cstackBANK0   00076
ui_disp_adj_xfixed_pt_dp@x                 cstackBANK0   00078
ui_disp_adj_xfloat_pt@buf                  cstackBANK0   0007D
ui_disp_adj_xfloat_pt@loc                  cstackBANK0   0007A
ui_disp_adj_xfloat_pt@str                  cstackBANK0   00076
ui_disp_adj_xfloat_pt@t8                   cstackBANK0   00089
ui_disp_adj_xfloat_pt@x                    cstackBANK0   00087
ui_disp_adj_xfloat_pt@xpf                  cstackBANK0   00078
ui_disp_menu_calib_diff_adj@buf            cstackBANK0   0008A
ui_disp_menu_calib_diff_adj@t8             cstackBANK0   00094
ui_disp_menu_calib_pr_adj@buf              cstackBANK0   0008A
ui_disp_menu_calib_pr_adj@t8               cstackBANK0   00094
ui_disp_menu_epr_calib_adj@buf             cstackBANK0   0008A
ui_disp_menu_epr_ilp_scale_adj@buf         cstackBANK0   0008A
ui_disp_menu_h_adj@fps                     cstackBANK0   0008A
ui_disp_menu_home@mf                       cstackBANK0   00088
ui_disp_menu_home@t8                       cstackBANK0   00087
ui_disp_menu_poly_c_adj@buf                cstackBANK0   00088
ui_disp_menu_poly_c_adj@t8                 cstackBANK0   0008E
ui_disp_menu_pos_adj@buf                   cstackBANK0   00078
ui_disp_menu_pos_adj@p                     cstackBANK0   00076
ui_disp_menu_warn_t_adj@buf                cstackBANK0   00077
ui_disp_menu_warn_t_adj@p                  cstackBANK0   0007E
ui_disp_menu_warn_t_adj@t8                 cstackBANK0   0007D
ui_disp_menu_warn_v_adj@buf                cstackBANK0   0008C
ui_disp_menu_warn_v_adj@fps                cstackBANK0   00092
ui_disp_menu_warn_v_adj@t8                 cstackBANK0   00095
ui_disp_menu_warn_v_adj@type               cstackBANK0   00094
ui_disp_menu_work_mode_adj@buf             cstackBANK0   00077
ui_disp_menu_work_mode_adj@p               cstackBANK0   00081
ui_disp_start_cs600@F7719                  dataBANK1     001EE
ui_disp_start_cs600@buf                    cstackBANK0   00076
ui_disp_start_cs600@dly                    cstackBANK0   0007C
ui_disp_start_cs600@t8                     cstackBANK0   0007D
ui_disp_xfloat_pt@buf                      cstackBANK0   0007A
ui_disp_xfloat_pt@line                     cstackBANK0   00078
ui_disp_xfloat_pt@t8                       cstackBANK0   00084
ui_disp_xfloat_pt@x                        cstackBANK0   00085
ui_disp_xfloat_pt@xpf                      cstackBANK0   00076


FUNCTION INFORMATION:

 *************** function _main *****************
 Defined at:
		line 5 in file "src/app/main.c"
 Parameters:    Size  Location     Type
		None
 Auto vars:     Size  Location     Type
  t16             2    0        unsigned int 
 Return value:  Size  Location     Type
                  2  1297[None  ] int 
 Registers used:
		wreg, fsr0l, fsr0h, fsr1l, fsr1h, fsr2l, fsr2h, status,2, status,0, pclath, tosl, tblptrl, tblptrh, tblptru, prodl, prodh, cstack
 Tracked objects:
		On entry : 
		On exit  : 
		Unchanged: 
 Data sizes:     COMRAM   BANK0   BANK1   BANK2   BANK3   BANK4   BANK5   BANK6   BANK7   BANK8   BANK9  BANK10  BANK11  BANK12  BANK13  BANK14  BANK15
      Params:         0       0       0       0       0       0       0       0       0       0       0       0       0       0       0       0       0
      Locals:         0       0       0       0       0       0       0       0       0       0       0       0       0       0       0       0       0
      Temps:          0       0       0       0       0       0       0       0       0       0       0       0       0       0       0       0       0
      Totals:         0       0       0       0       0       0       0       0       0       0       0       0       0       0       0       0       0
Total ram usage:        0 bytes
 Hardware stack levels required when called:   14
 This function calls:
		_ads1115_init_all_chip
		_data_init_all
		_event_process_rtc
		_event_process_ticker
		_event_process_time_out
		_in_adc_init
		_key_polling
		_key_process
		_lcd_init
		_rtc_set
		_soc_init
		_ui_disp_start_cs600
 This function is called by:
		Startup code after reset
 This function uses a non-reentrant model


 *************** function _ui_disp_start_cs600 *****************
 Defined at:
		line 147 in file "src/api/ui.c"
 Parameters:    Size  Location     Type
  dly             1    wreg     unsigned char 
 Auto vars:     Size  Location     Type
  dly             1   28[BANK0 ] unsigned char 
  buf             6   22[BANK0 ] unsigned char [6]
  t8              1   29[BANK0 ] unsigned char 
 Return value:  Size  Location     Type
                  1    wreg      void 
 Registers used:
		wreg, fsr0l, fsr0h, fsr1l, fsr1h, fsr2l, fsr2h, status,2, status,0, tblptrl, tblptrh, tblptru, prodl, prodh, cstack
 Tracked objects:
		On entry : 
		On exit  : 
		Unchanged: 
 Data sizes:     COMRAM   BANK0   BANK1   BANK2   BANK3   BANK4   BANK5   BANK6   BANK7   BANK8   BANK9  BANK10  BANK11  BANK12  BANK13  BANK14  BANK15
      Params:         0       0       0       0       0       0       0       0       0       0       0       0       0       0       0       0       0
      Locals:         0       8       0       0       0       0       0       0       0       0       0       0       0       0       0       0       0
      Temps:          0       0       0       0       0       0       0       0       0       0       0       0       0       0       0       0       0
      Totals:         0       8       0       0       0       0       0       0       0       0       0       0       0       0       0       0       0
Total ram usage:        8 bytes
 Hardware stack levels used:    1
 Hardware stack levels required when called:    9
 This function calls:
		_lcd_disp_all
		_lcd_disp_logo
		_lcd_disp_refresh
		_lcd_show_string_l0
		_lcd_show_string_l1
		_m_int8_2_hex
		_ticker_dly
 This function is called by:
		_main
 This function uses a non-reentrant model


 *************** function _ticker_dly *****************
 Defined at:
		line 49 in file "src/soc/ticker.c"
 Parameters:    Size  Location     Type
  ms              2    0[BANK0 ] unsigned int 
 Auto vars:     Size  Location     Type
		None
 Return value:  Size  Location     Type
                  1    wreg      void 
 Registers used:
		wreg, status,2, status,0
 Tracked objects:
		On entry : 
		On exit  : 
		Unchanged: 
 Data sizes:     COMRAM   BANK0   BANK1   BANK2   BANK3   BANK4   BANK5   BANK6   BANK7   BANK8   BANK9  BANK10  BANK11  BANK12  BANK13  BANK14  BANK15
      Params:         0       2       0       0       0       0       0       0       0       0       0       0       0       0       0       0       0
      Locals:         0       0       0       0       0       0       0       0       0       0       0       0       0       0       0       0       0
      Temps:          0       0       0       0       0       0       0       0       0       0       0       0       0       0       0       0       0
      Totals:         0       2       0       0       0       0       0       0       0       0       0       0       0       0       0       0       0
Total ram usage:        2 bytes
 Hardware stack levels used:    1
 Hardware stack levels required when called:    4
 This function calls:
		Nothing
 This function is called by:
		_ui_disp_start_cs600
 This function uses a non-reentrant model


 *************** function _m_int8_2_hex *****************
 Defined at:
		line 243 in file "src/depend/m_string.c"
 Parameters:    Size  Location     Type
  str             2    0[BANK0 ] PTR unsigned char 
		 -> ui_disp_rtc_mm_ss@buf(10), ui_disp_start_cs600@buf(6), 
  b               1    2[BANK0 ] unsigned char 
 Auto vars:     Size  Location     Type
  t8              1   31[COMRAM] unsigned char 
 Return value:  Size  Location     Type
                  1    wreg      void 
 Registers used:
		wreg, fsr2l, fsr2h, status,2, status,0, tblptrl, tblptrh, tblptru, prodl, prodh
 Tracked objects:
		On entry : 
		On exit  : 
		Unchanged: 
 Data sizes:     COMRAM   BANK0   BANK1   BANK2   BANK3   BANK4   BANK5   BANK6   BANK7   BANK8   BANK9  BANK10  BANK11  BANK12  BANK13  BANK14  BANK15
      Params:         0       3       0       0       0       0       0       0       0       0       0       0       0       0       0       0       0
      Locals:         1       0       0       0       0       0       0       0       0       0       0       0       0       0       0       0       0
      Temps:          0       0       0       0       0       0       0       0       0       0       0       0       0       0       0       0       0
      Totals:         1       3       0       0       0       0       0       0       0       0       0       0       0       0       0       0       0
Total ram usage:        4 bytes
 Hardware stack levels used:    1
 Hardware stack levels required when called:    4
 This function calls:
		Nothing
 This function is called by:
		_ui_disp_start_cs600
		_ui_disp_rtc_mm_ss
 This function uses a non-reentrant model


 *************** function _soc_init *****************
 Defined at:
		line 2 in file "src/soc/soc.c"
 Parameters:    Size  Location     Type
		None
 Auto vars:     Size  Location     Type
		None
 Return value:  Size  Location     Type
                  1    wreg      void 
 Registers used:
		wreg, status,2, cstack
 Tracked objects:
		On entry : 
		On exit  : 
		Unchanged: 
 Data sizes:     COMRAM   BANK0   BANK1   BANK2   BANK3   BANK4   BANK5   BANK6   BANK7   BANK8   BANK9  BANK10  BANK11  BANK12  BANK13  BANK14  BANK15
      Params:         0       0       0       0       0       0       0       0       0       0       0       0       0       0       0       0       0
      Locals:         0       0       0       0       0       0       0       0       0       0       0       0       0       0       0       0       0
      Temps:          0       0       0       0       0       0       0       0       0       0       0       0       0       0       0       0       0
      Totals:         0       0       0       0       0       0       0       0       0       0       0       0       0       0       0       0       0
Total ram usage:        0 bytes
 Hardware stack levels used:    1
 Hardware stack levels required when called:    6
 This function calls:
		_rtc_init
		_sys_ticker_init
 This function is called by:
		_main
 This function uses a non-reentrant model


 *************** function _sys_ticker_init *****************
 Defined at:
		line 29 in file "src/soc/ticker.c"
 Parameters:    Size  Location     Type
		None
 Auto vars:     Size  Location     Type
		None
 Return value:  Size  Location     Type
                  1    wreg      void 
 Registers used:
		wreg, status,2
 Tracked objects:
		On entry : 
		On exit  : 
		Unchanged: 
 Data sizes:     COMRAM   BANK0   BANK1   BANK2   BANK3   BANK4   BANK5   BANK6   BANK7   BANK8   BANK9  BANK10  BANK11  BANK12  BANK13  BANK14  BANK15
      Params:         0       0       0       0       0       0       0       0       0       0       0       0       0       0       0       0       0
      Locals:         0       0       0       0       0       0       0       0       0       0       0       0       0       0       0       0       0
      Temps:          0       0       0       0       0       0       0       0       0       0       0       0       0       0       0       0       0
      Totals:         0       0       0       0       0       0       0       0       0       0       0       0       0       0       0       0       0
Total ram usage:        0 bytes
 Hardware stack levels used:    1
 Hardware stack levels required when called:    4
 This function calls:
		Nothing
 This function is called by:
		_soc_init
 This function uses a non-reentrant model


 *************** function _rtc_init *****************
 Defined at:
		line 25 in file "src/soc/rtc.c"
 Parameters:    Size  Location     Type
		None
 Auto vars:     Size  Location     Type
		None
 Return value:  Size  Location     Type
                  1    wreg      void 
 Registers used:
		cstack
 Tracked objects:
		On entry : 
		On exit  : 
		Unchanged: 
 Data sizes:     COMRAM   BANK0   BANK1   BANK2   BANK3   BANK4   BANK5   BANK6   BANK7   BANK8   BANK9  BANK10  BANK11  BANK12  BANK13  BANK14  BANK15
      Params:         0       0       0       0       0       0       0       0       0       0       0       0       0       0       0       0       0
      Locals:         0       0       0       0       0       0       0       0       0       0       0       0       0       0       0       0       0
      Temps:          0       0       0       0       0       0       0       0       0       0       0       0       0       0       0       0       0
      Totals:         0       0       0       0       0       0       0       0       0       0       0       0       0       0       0       0       0
Total ram usage:        0 bytes
 Hardware stack levels used:    1
 Hardware stack levels required when called:    5
 This function calls:
		_rtcc_reg_wr_disable
		_rtcc_reg_wr_enable
 This function is called by:
		_soc_init
 This function uses a non-reentrant model


 *************** function _rtc_set *****************
 Defined at:
		line 54 in file "src/soc/rtc.c"
 Parameters:    Size  Location     Type
  rtc             2    0[BANK0 ] PTR unsigned char 
		 -> defalutRtc(7), 
 Auto vars:     Size  Location     Type
  stp             2    2[BANK0 ] PTR struct .
		 -> defalutRtc(7), 
 Return value:  Size  Location     Type
                  1    wreg      void 
 Registers used:
		wreg, fsr2l, fsr2h, status,2, status,0, cstack
 Tracked objects:
		On entry : 
		On exit  : 
		Unchanged: 
 Data sizes:     COMRAM   BANK0   BANK1   BANK2   BANK3   BANK4   BANK5   BANK6   BANK7   BANK8   BANK9  BANK10  BANK11  BANK12  BANK13  BANK14  BANK15
      Params:         0       2       0       0       0       0       0       0       0       0       0       0       0       0       0       0       0
      Locals:         0       2       0       0       0       0       0       0       0       0       0       0       0       0       0       0       0
      Temps:          0       0       0       0       0       0       0       0       0       0       0       0       0       0       0       0       0
      Totals:         0       4       0       0       0       0       0       0       0       0       0       0       0       0       0       0       0
Total ram usage:        4 bytes
 Hardware stack levels used:    1
 Hardware stack levels required when called:    5
 This function calls:
		_rtcc_reg_wr_disable
		_rtcc_reg_wr_enable
 This function is called by:
		_main
 This function uses a non-reentrant model


 *************** function _rtcc_reg_wr_enable *****************
 Defined at:
		line 9 in file "src/soc/rtc.c"
 Parameters:    Size  Location     Type
		None
 Auto vars:     Size  Location     Type
		None
 Return value:  Size  Location     Type
                  1    wreg      void 
 Registers used:
		None
 Tracked objects:
		On entry : 
		On exit  : 
		Unchanged: 
 Data sizes:     COMRAM   BANK0   BANK1   BANK2   BANK3   BANK4   BANK5   BANK6   BANK7   BANK8   BANK9  BANK10  BANK11  BANK12  BANK13  BANK14  BANK15
      Params:         0       0       0       0       0       0       0       0       0       0       0       0       0       0       0       0       0
      Locals:         0       0       0       0       0       0       0       0       0       0       0       0       0       0       0       0       0
      Temps:          0       0       0       0       0       0       0       0       0       0       0       0       0       0       0       0       0
      Totals:         0       0       0       0       0       0       0       0       0       0       0       0       0       0       0       0       0
Total ram usage:        0 bytes
 Hardware stack levels used:    1
 Hardware stack levels required when called:    4
 This function calls:
		Nothing
 This function is called by:
		_rtc_init
		_rtc_set
 This function uses a non-reentrant model


 *************** function _rtcc_reg_wr_disable *****************
 Defined at:
		line 17 in file "src/soc/rtc.c"
 Parameters:    Size  Location     Type
		None
 Auto vars:     Size  Location     Type
		None
 Return value:  Size  Location     Type
                  1    wreg      void 
 Registers used:
		None
 Tracked objects:
		On entry : 
		On exit  : 
		Unchanged: 
 Data sizes:     COMRAM   BANK0   BANK1   BANK2   BANK3   BANK4   BANK5   BANK6   BANK7   BANK8   BANK9  BANK10  BANK11  BANK12  BANK13  BANK14  BANK15
      Params:         0       0       0       0       0       0       0       0       0       0       0       0       0       0       0       0       0
      Locals:         0       0       0       0       0       0       0       0       0       0       0       0       0       0       0       0       0
      Temps:          0       0       0       0       0       0       0       0       0       0       0       0       0       0       0       0       0
      Totals:         0       0       0       0       0       0       0       0       0       0       0       0       0       0       0       0       0
Total ram usage:        0 bytes
 Hardware stack levels used:    1
 Hardware stack levels required when called:    4
 This function calls:
		Nothing
 This function is called by:
		_rtc_init
		_rtc_set
 This function uses a non-reentrant model


 *************** function _lcd_init *****************
 Defined at:
		line 667 in file "src/driver/lcd.c"
 Parameters:    Size  Location     Type
		None
 Auto vars:     Size  Location     Type
		None
 Return value:  Size  Location     Type
                  1    wreg      void 
 Registers used:
		wreg, fsr2l, fsr2h, status,2, status,0, prodl, prodh, cstack
 Tracked objects:
		On entry : 
		On exit  : 
		Unchanged: 
 Data sizes:     COMRAM   BANK0   BANK1   BANK2   BANK3   BANK4   BANK5   BANK6   BANK7   BANK8   BANK9  BANK10  BANK11  BANK12  BANK13  BANK14  BANK15
      Params:         0       0       0       0       0       0       0       0       0       0       0       0       0       0       0       0       0
      Locals:         0       0       0       0       0       0       0       0       0       0       0       0       0       0       0       0       0
      Temps:          0       0       0       0       0       0       0       0       0       0       0       0       0       0       0       0       0
      Totals:         0       0       0       0       0       0       0       0       0       0       0       0       0       0       0       0       0
Total ram usage:        0 bytes
 Hardware stack levels used:    1
 Hardware stack levels required when called:    6
 This function calls:
		_lcd_bl_on
		_lcd_config
 This function is called by:
		_main
 This function uses a non-reentrant model


 *************** function _lcd_config *****************
 Defined at:
		line 613 in file "src/driver/lcd.c"
 Parameters:    Size  Location     Type
		None
 Auto vars:     Size  Location     Type
		None
 Return value:  Size  Location     Type
                  1    wreg      void 
 Registers used:
		wreg, fsr2l, fsr2h, status,2, status,0, prodl, prodh, cstack
 Tracked objects:
		On entry : 
		On exit  : 
		Unchanged: 
 Data sizes:     COMRAM   BANK0   BANK1   BANK2   BANK3   BANK4   BANK5   BANK6   BANK7   BANK8   BANK9  BANK10  BANK11  BANK12  BANK13  BANK14  BANK15
      Params:         0       0       0       0       0       0       0       0       0       0       0       0       0       0       0       0       0
      Locals:         0       0       0       0       0       0       0       0       0       0       0       0       0       0       0       0       0
      Temps:          0       0       0       0       0       0       0       0       0       0       0       0       0       0       0       0       0
      Totals:         0       0       0       0       0       0       0       0       0       0       0       0       0       0       0       0       0
Total ram usage:        0 bytes
 Hardware stack levels used:    1
 Hardware stack levels required when called:    5
 This function calls:
		_lcd_disp_all
 This function is called by:
		_lcd_init
 This function uses a non-reentrant model


 *************** function _lcd_bl_on *****************
 Defined at:
		line 648 in file "src/driver/lcd.c"
 Parameters:    Size  Location     Type
		None
 Auto vars:     Size  Location     Type
		None
 Return value:  Size  Location     Type
                  1    wreg      void 
 Registers used:
		status,2, status,0
 Tracked objects:
		On entry : 
		On exit  : 
		Unchanged: 
 Data sizes:     COMRAM   BANK0   BANK1   BANK2   BANK3   BANK4   BANK5   BANK6   BANK7   BANK8   BANK9  BANK10  BANK11  BANK12  BANK13  BANK14  BANK15
      Params:         0       0       0       0       0       0       0       0       0       0       0       0       0       0       0       0       0
      Locals:         0       0       0       0       0       0       0       0       0       0       0       0       0       0       0       0       0
      Temps:          0       0       0       0       0       0       0       0       0       0       0       0       0       0       0       0       0
      Totals:         0       0       0       0       0       0       0       0       0       0       0       0       0       0       0       0       0
Total ram usage:        0 bytes
 Hardware stack levels used:    1
 Hardware stack levels required when called:    4
 This function calls:
		Nothing
 This function is called by:
		_lcd_init
 This function uses a non-reentrant model


 *************** function _key_process *****************
 Defined at:
		line 960 in file "src/api/key_menu.c"
 Parameters:    Size  Location     Type
		None
 Auto vars:     Size  Location     Type
  tm              2    9[BANK3 ] unsigned int 
  key             1   11[BANK3 ] unsigned char 
 Return value:  Size  Location     Type
                  1    wreg      void 
 Registers used:
		wreg, fsr0l, fsr0h, fsr1l, fsr1h, fsr2l, fsr2h, status,2, status,0, pclath, tosl, tblptrl, tblptrh, tblptru, prodl, prodh, cstack
 Tracked objects:
		On entry : 
		On exit  : 
		Unchanged: 
 Data sizes:     COMRAM   BANK0   BANK1   BANK2   BANK3   BANK4   BANK5   BANK6   BANK7   BANK8   BANK9  BANK10  BANK11  BANK12  BANK13  BANK14  BANK15
      Params:         0       0       0       0       0       0       0       0       0       0       0       0       0       0       0       0       0
      Locals:         0       0       0       0       3       0       0       0       0       0       0       0       0       0       0       0       0
      Temps:          0       0       0       0       0       0       0       0       0       0       0       0       0       0       0       0       0
      Totals:         0       0       0       0       3       0       0       0       0       0       0       0       0       0       0       0       0
Total ram usage:        3 bytes
 Hardware stack levels used:    1
 Hardware stack levels required when called:   13
 This function calls:
		_key_process_down
		_key_process_set
		_key_process_set_down_long
		_key_process_set_long
		_key_process_up
		_key_waite_release
		_ui_disp_menu
 This function is called by:
		_main
		_event_process
 This function uses a non-reentrant model


 *************** function _key_waite_release *****************
 Defined at:
		line 32 in file "src/api/key_menu.c"
 Parameters:    Size  Location     Type
  timeout         2    8[BANK0 ] unsigned int 
  key             2   10[BANK0 ] PTR unsigned char 
		 -> key_process@key(1), 
 Auto vars:     Size  Location     Type
  t8              1   31[COMRAM] unsigned char 
 Return value:  Size  Location     Type
                  2    8[BANK0 ] unsigned int 
 Registers used:
		wreg, fsr2l, fsr2h, status,2, status,0, cstack
 Tracked objects:
		On entry : 
		On exit  : 
		Unchanged: 
 Data sizes:     COMRAM   BANK0   BANK1   BANK2   BANK3   BANK4   BANK5   BANK6   BANK7   BANK8   BANK9  BANK10  BANK11  BANK12  BANK13  BANK14  BANK15
      Params:         0       4       0       0       0       0       0       0       0       0       0       0       0       0       0       0       0
      Locals:         1       0       0       0       0       0       0       0       0       0       0       0       0       0       0       0       0
      Temps:          0       0       0       0       0       0       0       0       0       0       0       0       0       0       0       0       0
      Totals:         1       4       0       0       0       0       0       0       0       0       0       0       0       0       0       0       0
Total ram usage:        5 bytes
 Hardware stack levels used:    1
 Hardware stack levels required when called:    7
 This function calls:
		_delay_ms
		_key_polling
 This function is called by:
		_key_process
 This function uses a non-reentrant model


 *************** function _key_polling *****************
 Defined at:
		line 8 in file "src/driver/key.c"
 Parameters:    Size  Location     Type
		None
 Auto vars:     Size  Location     Type
  t8              1    7[BANK0 ] unsigned char 
  ktemp           1    6[BANK0 ] unsigned char 
 Return value:  Size  Location     Type
                  1    wreg      unsigned char 
 Registers used:
		wreg, status,2, status,0, cstack
 Tracked objects:
		On entry : 
		On exit  : 
		Unchanged: 
 Data sizes:     COMRAM   BANK0   BANK1   BANK2   BANK3   BANK4   BANK5   BANK6   BANK7   BANK8   BANK9  BANK10  BANK11  BANK12  BANK13  BANK14  BANK15
      Params:         0       0       0       0       0       0       0       0       0       0       0       0       0       0       0       0       0
      Locals:         0       2       0       0       0       0       0       0       0       0       0       0       0       0       0       0       0
      Temps:          0       0       0       0       0       0       0       0       0       0       0       0       0       0       0       0       0
      Totals:         0       2       0       0       0       0       0       0       0       0       0       0       0       0       0       0       0
Total ram usage:        2 bytes
 Hardware stack levels used:    1
 Hardware stack levels required when called:    6
 This function calls:
		_delay_ms
 This function is called by:
		_key_waite_release
		_main
		_event_process
 This function uses a non-reentrant model


 *************** function _key_process_up *****************
 Defined at:
		line 557 in file "src/api/key_menu.c"
 Parameters:    Size  Location     Type
		None
 Auto vars:     Size  Location     Type
		None
 Return value:  Size  Location     Type
                  1    wreg      void 
 Registers used:
		wreg, fsr2l, fsr2h, status,2, status,0, prodl, prodh, cstack
 Tracked objects:
		On entry : 
		On exit  : 
		Unchanged: 
 Data sizes:     COMRAM   BANK0   BANK1   BANK2   BANK3   BANK4   BANK5   BANK6   BANK7   BANK8   BANK9  BANK10  BANK11  BANK12  BANK13  BANK14  BANK15
      Params:         0       0       0       0       0       0       0       0       0       0       0       0       0       0       0       0       0
      Locals:         0       0       0       0       0       0       0       0       0       0       0       0       0       0       0       0       0
      Temps:          0       0       0       0       0       0       0       0       0       0       0       0       0       0       0       0       0
      Totals:         0       0       0       0       0       0       0       0       0       0       0       0       0       0       0       0       0
Total ram usage:        0 bytes
 Hardware stack levels used:    1
 Hardware stack levels required when called:    8
 This function calls:
		___up_adj_bar_level_scale
		___up_adj_work_mode
		___up_base_zero_adj
		___up_density_adj
		___up_diff_calib_adj
		___up_epr_calib_adj
		___up_epr_ilp_scale_adj
		___up_home_adj
		___up_poly_coefic_adj
		___up_pose_size_adj
		___up_pr_calib_adj
		___up_psw_adj
		___up_warn_type_adj
		___up_warn_value_adj
 This function is called by:
		_key_process
 This function uses a non-reentrant model


 *************** function ___up_warn_value_adj *****************
 Defined at:
		line 513 in file "src/api/key_menu.c"
 Parameters:    Size  Location     Type
		None
 Auto vars:     Size  Location     Type
		None
 Return value:  Size  Location     Type
                  1    wreg      void 
 Registers used:
		wreg, fsr2l, fsr2h, status,2, status,0, prodl, prodh, cstack
 Tracked objects:
		On entry : 
		On exit  : 
		Unchanged: 
 Data sizes:     COMRAM   BANK0   BANK1   BANK2   BANK3   BANK4   BANK5   BANK6   BANK7   BANK8   BANK9  BANK10  BANK11  BANK12  BANK13  BANK14  BANK15
      Params:         0       0       0       0       0       0       0       0       0       0       0       0       0       0       0       0       0
      Locals:         0       0       0       0       0       0       0       0       0       0       0       0       0       0       0       0       0
      Temps:          0       0       0       0       0       0       0       0       0       0       0       0       0       0       0       0       0
      Totals:         0       0       0       0       0       0       0       0       0       0       0       0       0       0       0       0       0
Total ram usage:        0 bytes
 Hardware stack levels used:    1
 Hardware stack levels required when called:    7
 This function calls:
		_key_adj_value_float
 This function is called by:
		_key_process_up
 This function uses a non-reentrant model


 *************** function ___up_warn_type_adj *****************
 Defined at:
		line 505 in file "src/api/key_menu.c"
 Parameters:    Size  Location     Type
		None
 Auto vars:     Size  Location     Type
  p               2    0[BANK0 ] PTR unsigned char 
		 -> adjValue(4), 
 Return value:  Size  Location     Type
                  1    wreg      void 
 Registers used:
		wreg, fsr2l, fsr2h, status,2, status,0
 Tracked objects:
		On entry : 
		On exit  : 
		Unchanged: 
 Data sizes:     COMRAM   BANK0   BANK1   BANK2   BANK3   BANK4   BANK5   BANK6   BANK7   BANK8   BANK9  BANK10  BANK11  BANK12  BANK13  BANK14  BANK15
      Params:         0       0       0       0       0       0       0       0       0       0       0       0       0       0       0       0       0
      Locals:         0       2       0       0       0       0       0       0       0       0       0       0       0       0       0       0       0
      Temps:          1       0       0       0       0       0       0       0       0       0       0       0       0       0       0       0       0
      Totals:         1       2       0       0       0       0       0       0       0       0       0       0       0       0       0       0       0
Total ram usage:        3 bytes
 Hardware stack levels used:    1
 Hardware stack levels required when called:    4
 This function calls:
		Nothing
 This function is called by:
		_key_process_up
 This function uses a non-reentrant model


 *************** function ___up_psw_adj *****************
 Defined at:
		line 440 in file "src/api/key_menu.c"
 Parameters:    Size  Location     Type
		None
 Auto vars:     Size  Location     Type
		None
 Return value:  Size  Location     Type
                  1    wreg      void 
 Registers used:
		wreg, fsr2l, fsr2h, status,2, status,0, prodl, prodh, cstack
 Tracked objects:
		On entry : 
		On exit  : 
		Unchanged: 
 Data sizes:     COMRAM   BANK0   BANK1   BANK2   BANK3   BANK4   BANK5   BANK6   BANK7   BANK8   BANK9  BANK10  BANK11  BANK12  BANK13  BANK14  BANK15
      Params:         0       0       0       0       0       0       0       0       0       0       0       0       0       0       0       0       0
      Locals:         0       0       0       0       0       0       0       0       0       0       0       0       0       0       0       0       0
      Temps:          0       0       0       0       0       0       0       0       0       0       0       0       0       0       0       0       0
      Totals:         0       0       0       0       0       0       0       0       0       0       0       0       0       0       0       0       0
Total ram usage:        0 bytes
 Hardware stack levels used:    1
 Hardware stack levels required when called:    6
 This function calls:
		_key_adj_value_fixed
 This function is called by:
		_key_process_up
 This function uses a non-reentrant model


 *************** function ___up_pr_calib_adj *****************
 Defined at:
		line 487 in file "src/api/key_menu.c"
 Parameters:    Size  Location     Type
		None
 Auto vars:     Size  Location     Type
  t8              1   27[BANK0 ] unsigned char 
 Return value:  Size  Location     Type
                  1    wreg      void 
 Registers used:
		wreg, fsr2l, fsr2h, status,2, status,0, prodl, prodh, cstack
 Tracked objects:
		On entry : 
		On exit  : 
		Unchanged: 
 Data sizes:     COMRAM   BANK0   BANK1   BANK2   BANK3   BANK4   BANK5   BANK6   BANK7   BANK8   BANK9  BANK10  BANK11  BANK12  BANK13  BANK14  BANK15
      Params:         0       0       0       0       0       0       0       0       0       0       0       0       0       0       0       0       0
      Locals:         0       1       0       0       0       0       0       0       0       0       0       0       0       0       0       0       0
      Temps:          0       0       0       0       0       0       0       0       0       0       0       0       0       0       0       0       0
      Totals:         0       1       0       0       0       0       0       0       0       0       0       0       0       0       0       0       0
Total ram usage:        1 bytes
 Hardware stack levels used:    1
 Hardware stack levels required when called:    7
 This function calls:
		_key_adj_value_float
 This function is called by:
		_key_process_up
 This function uses a non-reentrant model


 *************** function ___up_pose_size_adj *****************
 Defined at:
		line 450 in file "src/api/key_menu.c"
 Parameters:    Size  Location     Type
		None
 Auto vars:     Size  Location     Type
  p               2   28[BANK0 ] PTR unsigned char 
		 -> adjValue(4), 
 Return value:  Size  Location     Type
                  1    wreg      void 
 Registers used:
		wreg, fsr2l, fsr2h, status,2, status,0, prodl, prodh, cstack
 Tracked objects:
		On entry : 
		On exit  : 
		Unchanged: 
 Data sizes:     COMRAM   BANK0   BANK1   BANK2   BANK3   BANK4   BANK5   BANK6   BANK7   BANK8   BANK9  BANK10  BANK11  BANK12  BANK13  BANK14  BANK15
      Params:         0       0       0       0       0       0       0       0       0       0       0       0       0       0       0       0       0
      Locals:         0       2       0       0       0       0       0       0       0       0       0       0       0       0       0       0       0
      Temps:          0       1       0       0       0       0       0       0       0       0       0       0       0       0       0       0       0
      Totals:         0       3       0       0       0       0       0       0       0       0       0       0       0       0       0       0       0
Total ram usage:        3 bytes
 Hardware stack levels used:    1
 Hardware stack levels required when called:    7
 This function calls:
		_key_adj_value_float
 This function is called by:
		_key_process_up
 This function uses a non-reentrant model


 *************** function ___up_poly_coefic_adj *****************
 Defined at:
		line 500 in file "src/api/key_menu.c"
 Parameters:    Size  Location     Type
		None
 Auto vars:     Size  Location     Type
		None
 Return value:  Size  Location     Type
                  1    wreg      void 
 Registers used:
		wreg, fsr2l, fsr2h, status,2, status,0, prodl, prodh, cstack
 Tracked objects:
		On entry : 
		On exit  : 
		Unchanged: 
 Data sizes:     COMRAM   BANK0   BANK1   BANK2   BANK3   BANK4   BANK5   BANK6   BANK7   BANK8   BANK9  BANK10  BANK11  BANK12  BANK13  BANK14  BANK15
      Params:         0       0       0       0       0       0       0       0       0       0       0       0       0       0       0       0       0
      Locals:         0       0       0       0       0       0       0       0       0       0       0       0       0       0       0       0       0
      Temps:          0       0       0       0       0       0       0       0       0       0       0       0       0       0       0       0       0
      Totals:         0       0       0       0       0       0       0       0       0       0       0       0       0       0       0       0       0
Total ram usage:        0 bytes
 Hardware stack levels used:    1
 Hardware stack levels required when called:    6
 This function calls:
		_key_adj_value_fixed
 This function is called by:
		_key_process_up
 This function uses a non-reentrant model


 *************** function ___up_home_adj *****************
 Defined at:
		line 423 in file "src/api/key_menu.c"
 Parameters:    Size  Location     Type
		None
 Auto vars:     Size  Location     Type
  t8              1   31[COMRAM] unsigned char 
 Return value:  Size  Location     Type
                  1    wreg      void 
 Registers used:
		wreg, status,2, status,0
 Tracked objects:
		On entry : 
		On exit  : 
		Unchanged: 
 Data sizes:     COMRAM   BANK0   BANK1   BANK2   BANK3   BANK4   BANK5   BANK6   BANK7   BANK8   BANK9  BANK10  BANK11  BANK12  BANK13  BANK14  BANK15
      Params:         0       0       0       0       0       0       0       0       0       0       0       0       0       0       0       0       0
      Locals:         1       0       0       0       0       0       0       0       0       0       0       0       0       0       0       0       0
      Temps:          0       0       0       0       0       0       0       0       0       0       0       0       0       0       0       0       0
      Totals:         1       0       0       0       0       0       0       0       0       0       0       0       0       0       0       0       0
Total ram usage:        1 bytes
 Hardware stack levels used:    1
 Hardware stack levels required when called:    4
 This function calls:
		Nothing
 This function is called by:
		_key_process_up
 This function uses a non-reentrant model


 *************** function ___up_epr_ilp_scale_adj *****************
 Defined at:
		line 534 in file "src/api/key_menu.c"
 Parameters:    Size  Location     Type
		None
 Auto vars:     Size  Location     Type
		None
 Return value:  Size  Location     Type
                  1    wreg      void 
 Registers used:
		wreg, fsr2l, fsr2h, status,2, status,0, prodl, prodh, cstack
 Tracked objects:
		On entry : 
		On exit  : 
		Unchanged: 
 Data sizes:     COMRAM   BANK0   BANK1   BANK2   BANK3   BANK4   BANK5   BANK6   BANK7   BANK8   BANK9  BANK10  BANK11  BANK12  BANK13  BANK14  BANK15
      Params:         0       0       0       0       0       0       0       0       0       0       0       0       0       0       0       0       0
      Locals:         0       0       0       0       0       0       0       0       0       0       0       0       0       0       0       0       0
      Temps:          0       0       0       0       0       0       0       0       0       0       0       0       0       0       0       0       0
      Totals:         0       0       0       0       0       0       0       0       0       0       0       0       0       0       0       0       0
Total ram usage:        0 bytes
 Hardware stack levels used:    1
 Hardware stack levels required when called:    7
 This function calls:
		_key_adj_value_float
 This function is called by:
		_key_process_up
 This function uses a non-reentrant model


 *************** function ___up_epr_calib_adj *****************
 Defined at:
		line 518 in file "src/api/key_menu.c"
 Parameters:    Size  Location     Type
		None
 Auto vars:     Size  Location     Type
		None
 Return value:  Size  Location     Type
                  1    wreg      void 
 Registers used:
		wreg, fsr2l, fsr2h, status,2, status,0, prodl, prodh, cstack
 Tracked objects:
		On entry : 
		On exit  : 
		Unchanged: 
 Data sizes:     COMRAM   BANK0   BANK1   BANK2   BANK3   BANK4   BANK5   BANK6   BANK7   BANK8   BANK9  BANK10  BANK11  BANK12  BANK13  BANK14  BANK15
      Params:         0       0       0       0       0       0       0       0       0       0       0       0       0       0       0       0       0
      Locals:         0       0       0       0       0       0       0       0       0       0       0       0       0       0       0       0       0
      Temps:          0       0       0       0       0       0       0       0       0       0       0       0       0       0       0       0       0
      Totals:         0       0       0       0       0       0       0       0       0       0       0       0       0       0       0       0       0
Total ram usage:        0 bytes
 Hardware stack levels used:    1
 Hardware stack levels required when called:    7
 This function calls:
		_key_adj_value_float
 This function is called by:
		_key_process_up
 This function uses a non-reentrant model


 *************** function ___up_diff_calib_adj *****************
 Defined at:
		line 474 in file "src/api/key_menu.c"
 Parameters:    Size  Location     Type
		None
 Auto vars:     Size  Location     Type
  t8              1   27[BANK0 ] unsigned char 
 Return value:  Size  Location     Type
                  1    wreg      void 
 Registers used:
		wreg, fsr2l, fsr2h, status,2, status,0, prodl, prodh, cstack
 Tracked objects:
		On entry : 
		On exit  : 
		Unchanged: 
 Data sizes:     COMRAM   BANK0   BANK1   BANK2   BANK3   BANK4   BANK5   BANK6   BANK7   BANK8   BANK9  BANK10  BANK11  BANK12  BANK13  BANK14  BANK15
      Params:         0       0       0       0       0       0       0       0       0       0       0       0       0       0       0       0       0
      Locals:         0       1       0       0       0       0       0       0       0       0       0       0       0       0       0       0       0
      Temps:          0       0       0       0       0       0       0       0       0       0       0       0       0       0       0       0       0
      Totals:         0       1       0       0       0       0       0       0       0       0       0       0       0       0       0       0       0
Total ram usage:        1 bytes
 Hardware stack levels used:    1
 Hardware stack levels required when called:    7
 This function calls:
		_key_adj_value_float
 This function is called by:
		_key_process_up
 This function uses a non-reentrant model


 *************** function ___up_density_adj *****************
 Defined at:
		line 445 in file "src/api/key_menu.c"
 Parameters:    Size  Location     Type
		None
 Auto vars:     Size  Location     Type
		None
 Return value:  Size  Location     Type
                  1    wreg      void 
 Registers used:
		wreg, fsr2l, fsr2h, status,2, status,0, prodl, prodh, cstack
 Tracked objects:
		On entry : 
		On exit  : 
		Unchanged: 
 Data sizes:     COMRAM   BANK0   BANK1   BANK2   BANK3   BANK4   BANK5   BANK6   BANK7   BANK8   BANK9  BANK10  BANK11  BANK12  BANK13  BANK14  BANK15
      Params:         0       0       0       0       0       0       0       0       0       0       0       0       0       0       0       0       0
      Locals:         0       0       0       0       0       0       0       0       0       0       0       0       0       0       0       0       0
      Temps:          0       0       0       0       0       0       0       0       0       0       0       0       0       0       0       0       0
      Totals:         0       0       0       0       0       0       0       0       0       0       0       0       0       0       0       0       0
Total ram usage:        0 bytes
 Hardware stack levels used:    1
 Hardware stack levels required when called:    7
 This function calls:
		_key_adj_value_float
 This function is called by:
		_key_process_up
 This function uses a non-reentrant model


 *************** function ___up_base_zero_adj *****************
 Defined at:
		line 467 in file "src/api/key_menu.c"
 Parameters:    Size  Location     Type
		None
 Auto vars:     Size  Location     Type
		None
 Return value:  Size  Location     Type
                  1    wreg      void 
 Registers used:
		wreg, fsr2l, fsr2h, status,2, status,0, prodl, prodh, cstack
 Tracked objects:
		On entry : 
		On exit  : 
		Unchanged: 
 Data sizes:     COMRAM   BANK0   BANK1   BANK2   BANK3   BANK4   BANK5   BANK6   BANK7   BANK8   BANK9  BANK10  BANK11  BANK12  BANK13  BANK14  BANK15
      Params:         0       0       0       0       0       0       0       0       0       0       0       0       0       0       0       0       0
      Locals:         0       0       0       0       0       0       0       0       0       0       0       0       0       0       0       0       0
      Temps:          0       0       0       0       0       0       0       0       0       0       0       0       0       0       0       0       0
      Totals:         0       0       0       0       0       0       0       0       0       0       0       0       0       0       0       0       0
Total ram usage:        0 bytes
 Hardware stack levels used:    1
 Hardware stack levels required when called:    7
 This function calls:
		_key_adj_value_float
 This function is called by:
		_key_process_up
 This function uses a non-reentrant model


 *************** function _key_adj_value_float *****************
 Defined at:
		line 75 in file "src/api/key_menu.c"
 Parameters:    Size  Location     Type
  mfp             2   21[BANK0 ] PTR struct .
		 -> m_floatAdj(4), 
  loc             1   23[BANK0 ] unsigned char 
 Auto vars:     Size  Location     Type
  t16             2   24[BANK0 ] unsigned int 
  t8              1   26[BANK0 ] unsigned char 
 Return value:  Size  Location     Type
                  1    wreg      void 
 Registers used:
		wreg, fsr2l, fsr2h, status,2, status,0, prodl, prodh, cstack
 Tracked objects:
		On entry : 
		On exit  : 
		Unchanged: 
 Data sizes:     COMRAM   BANK0   BANK1   BANK2   BANK3   BANK4   BANK5   BANK6   BANK7   BANK8   BANK9  BANK10  BANK11  BANK12  BANK13  BANK14  BANK15
      Params:         0       3       0       0       0       0       0       0       0       0       0       0       0       0       0       0       0
      Locals:         0       3       0       0       0       0       0       0       0       0       0       0       0       0       0       0       0
      Temps:          0       0       0       0       0       0       0       0       0       0       0       0       0       0       0       0       0
      Totals:         0       6       0       0       0       0       0       0       0       0       0       0       0       0       0       0       0
Total ram usage:        6 bytes
 Hardware stack levels used:    1
 Hardware stack levels required when called:    6
 This function calls:
		_key_adj_value_fixed
 This function is called by:
		___up_density_adj
		___up_pose_size_adj
		___up_base_zero_adj
		___up_diff_calib_adj
		___up_pr_calib_adj
		___up_warn_value_adj
		___up_epr_calib_adj
		___up_epr_ilp_scale_adj
 This function uses a non-reentrant model


 *************** function ___up_adj_work_mode *****************
 Defined at:
		line 546 in file "src/api/key_menu.c"
 Parameters:    Size  Location     Type
		None
 Auto vars:     Size  Location     Type
  p               2    0[BANK0 ] PTR unsigned char 
		 -> adjValue(4), 
 Return value:  Size  Location     Type
                  1    wreg      void 
 Registers used:
		wreg, fsr2l, fsr2h, status,2, status,0
 Tracked objects:
		On entry : 
		On exit  : 
		Unchanged: 
 Data sizes:     COMRAM   BANK0   BANK1   BANK2   BANK3   BANK4   BANK5   BANK6   BANK7   BANK8   BANK9  BANK10  BANK11  BANK12  BANK13  BANK14  BANK15
      Params:         0       0       0       0       0       0       0       0       0       0       0       0       0       0       0       0       0
      Locals:         0       2       0       0       0       0       0       0       0       0       0       0       0       0       0       0       0
      Temps:          0       0       0       0       0       0       0       0       0       0       0       0       0       0       0       0       0
      Totals:         0       2       0       0       0       0       0       0       0       0       0       0       0       0       0       0       0
Total ram usage:        2 bytes
 Hardware stack levels used:    1
 Hardware stack levels required when called:    4
 This function calls:
		Nothing
 This function is called by:
		_key_process_up
 This function uses a non-reentrant model


 *************** function ___up_adj_bar_level_scale *****************
 Defined at:
		line 541 in file "src/api/key_menu.c"
 Parameters:    Size  Location     Type
		None
 Auto vars:     Size  Location     Type
		None
 Return value:  Size  Location     Type
                  1    wreg      void 
 Registers used:
		wreg, fsr2l, fsr2h, status,2, status,0, prodl, prodh, cstack
 Tracked objects:
		On entry : 
		On exit  : 
		Unchanged: 
 Data sizes:     COMRAM   BANK0   BANK1   BANK2   BANK3   BANK4   BANK5   BANK6   BANK7   BANK8   BANK9  BANK10  BANK11  BANK12  BANK13  BANK14  BANK15
      Params:         0       0       0       0       0       0       0       0       0       0       0       0       0       0       0       0       0
      Locals:         0       0       0       0       0       0       0       0       0       0       0       0       0       0       0       0       0
      Temps:          0       0       0       0       0       0       0       0       0       0       0       0       0       0       0       0       0
      Totals:         0       0       0       0       0       0       0       0       0       0       0       0       0       0       0       0       0
Total ram usage:        0 bytes
 Hardware stack levels used:    1
 Hardware stack levels required when called:    6
 This function calls:
		_key_adj_value_fixed
 This function is called by:
		_key_process_up
 This function uses a non-reentrant model


 *************** function _key_adj_value_fixed *****************
 Defined at:
		line 61 in file "src/api/key_menu.c"
 Parameters:    Size  Location     Type
  value           2   14[BANK0 ] PTR unsigned int 
		 -> adjValue(4), passWord(2), key_adj_value_float@t16(2), 
  loc             1   16[BANK0 ] unsigned char 
 Auto vars:     Size  Location     Type
  t16             2   19[BANK0 ] unsigned int 
  dloc            2   17[BANK0 ] unsigned int 
 Return value:  Size  Location     Type
                  1    wreg      void 
 Registers used:
		wreg, fsr2l, fsr2h, status,2, status,0, prodl, prodh, cstack
 Tracked objects:
		On entry : 
		On exit  : 
		Unchanged: 
 Data sizes:     COMRAM   BANK0   BANK1   BANK2   BANK3   BANK4   BANK5   BANK6   BANK7   BANK8   BANK9  BANK10  BANK11  BANK12  BANK13  BANK14  BANK15
      Params:         0       3       0       0       0       0       0       0       0       0       0       0       0       0       0       0       0
      Locals:         0       4       0       0       0       0       0       0       0       0       0       0       0       0       0       0       0
      Temps:          0       0       0       0       0       0       0       0       0       0       0       0       0       0       0       0       0
      Totals:         0       7       0       0       0       0       0       0       0       0       0       0       0       0       0       0       0
Total ram usage:        7 bytes
 Hardware stack levels used:    1
 Hardware stack levels required when called:    5
 This function calls:
		___exp_10
		___lwdiv
		___lwmod
		___wmul
 This function is called by:
		_key_adj_value_float
		___up_psw_adj
		___up_poly_coefic_adj
		___up_adj_bar_level_scale
 This function uses a non-reentrant model


 *************** function ___lwmod *****************
 Defined at:
		line 8 in file "C:\Program Files (x86)\Microchip\xc8\v1.41\sources\common\lwmod.c"
 Parameters:    Size  Location     Type
  dividend        2    9[BANK0 ] unsigned int 
  divisor         2   11[BANK0 ] unsigned int 
 Auto vars:     Size  Location     Type
  counter         1   13[BANK0 ] unsigned char 
 Return value:  Size  Location     Type
                  2    9[BANK0 ] unsigned int 
 Registers used:
		wreg, status,2, status,0
 Tracked objects:
		On entry : 
		On exit  : 
		Unchanged: 
 Data sizes:     COMRAM   BANK0   BANK1   BANK2   BANK3   BANK4   BANK5   BANK6   BANK7   BANK8   BANK9  BANK10  BANK11  BANK12  BANK13  BANK14  BANK15
      Params:         0       4       0       0       0       0       0       0       0       0       0       0       0       0       0       0       0
      Locals:         0       1       0       0       0       0       0       0       0       0       0       0       0       0       0       0       0
      Temps:          0       0       0       0       0       0       0       0       0       0       0       0       0       0       0       0       0
      Totals:         0       5       0       0       0       0       0       0       0       0       0       0       0       0       0       0       0
Total ram usage:        5 bytes
 Hardware stack levels used:    1
 Hardware stack levels required when called:    4
 This function calls:
		Nothing
 This function is called by:
		_key_adj_value_fixed
 This function uses a non-reentrant model


 *************** function ___exp_10 *****************
 Defined at:
		line 21 in file "src/api/key_menu.c"
 Parameters:    Size  Location     Type
  n               1    wreg     unsigned char 
 Auto vars:     Size  Location     Type
  n               1   31[COMRAM] unsigned char 
 Return value:  Size  Location     Type
                  2    0[BANK0 ] unsigned int 
 Registers used:
		wreg, status,2, status,0
 Tracked objects:
		On entry : 
		On exit  : 
		Unchanged: 
 Data sizes:     COMRAM   BANK0   BANK1   BANK2   BANK3   BANK4   BANK5   BANK6   BANK7   BANK8   BANK9  BANK10  BANK11  BANK12  BANK13  BANK14  BANK15
      Params:         0       2       0       0       0       0       0       0       0       0       0       0       0       0       0       0       0
      Locals:         1       0       0       0       0       0       0       0       0       0       0       0       0       0       0       0       0
      Temps:          0       0       0       0       0       0       0       0       0       0       0       0       0       0       0       0       0
      Totals:         1       2       0       0       0       0       0       0       0       0       0       0       0       0       0       0       0
Total ram usage:        3 bytes
 Hardware stack levels used:    1
 Hardware stack levels required when called:    4
 This function calls:
		Nothing
 This function is called by:
		_key_adj_value_fixed
 This function uses a non-reentrant model


 *************** function _key_process_set_long *****************
 Defined at:
		line 913 in file "src/api/key_menu.c"
 Parameters:    Size  Location     Type
		None
 Auto vars:     Size  Location     Type
		None
 Return value:  Size  Location     Type
                  1    wreg      void 
 Registers used:
		wreg, fsr0l, fsr0h, fsr1l, fsr1h, fsr2l, fsr2h, status,2, status,0, pclath, tosl, tblptrl, tblptrh, tblptru, prodl, prodh, cstack
 Tracked objects:
		On entry : 
		On exit  : 
		Unchanged: 
 Data sizes:     COMRAM   BANK0   BANK1   BANK2   BANK3   BANK4   BANK5   BANK6   BANK7   BANK8   BANK9  BANK10  BANK11  BANK12  BANK13  BANK14  BANK15
      Params:         0       0       0       0       0       0       0       0       0       0       0       0       0       0       0       0       0
      Locals:         0       0       0       0       0       0       0       0       0       0       0       0       0       0       0       0       0
      Temps:          0       0       0       0       0       0       0       0       0       0       0       0       0       0       0       0       0
      Totals:         0       0       0       0       0       0       0       0       0       0       0       0       0       0       0       0       0
Total ram usage:        0 bytes
 Hardware stack levels used:    1
 Hardware stack levels required when called:   10
 This function calls:
		___exit_menu_to_home_unsave
		___set_long_bar_level_scale
		___set_long_base_zero
		___set_long_density
		___set_long_work_mode
		___set_short_diff_calib
		___set_short_epr_ilp_scale
		___set_short_epr_param
		___set_short_poly_coefic
		___set_short_pose_size
		___set_short_pr_calib
		___set_short_warn_type
		___set_short_warn_value
 This function is called by:
		_key_process
 This function uses a non-reentrant model


 *************** function ___set_long_work_mode *****************
 Defined at:
		line 901 in file "src/api/key_menu.c"
 Parameters:    Size  Location     Type
		None
 Auto vars:     Size  Location     Type
  t32             4    0        long 
  p               2    0[BANK0 ] PTR unsigned char 
		 -> adjValue(4), 
 Return value:  Size  Location     Type
                  1    wreg      void 
 Registers used:
		wreg, fsr2l, fsr2h, status,2, status,0, cstack
 Tracked objects:
		On entry : 
		On exit  : 
		Unchanged: 
 Data sizes:     COMRAM   BANK0   BANK1   BANK2   BANK3   BANK4   BANK5   BANK6   BANK7   BANK8   BANK9  BANK10  BANK11  BANK12  BANK13  BANK14  BANK15
      Params:         0       0       0       0       0       0       0       0       0       0       0       0       0       0       0       0       0
      Locals:         0       2       0       0       0       0       0       0       0       0       0       0       0       0       0       0       0
      Temps:          0       0       0       0       0       0       0       0       0       0       0       0       0       0       0       0       0
      Totals:         0       2       0       0       0       0       0       0       0       0       0       0       0       0       0       0       0
Total ram usage:        2 bytes
 Hardware stack levels used:    1
 Hardware stack levels required when called:    5
 This function calls:
		___exit_menu_to_home_unsave
 This function is called by:
		_key_process_set_long
 This function uses a non-reentrant model


 *************** function ___set_long_density *****************
 Defined at:
		line 857 in file "src/api/key_menu.c"
 Parameters:    Size  Location     Type
		None
 Auto vars:     Size  Location     Type
  t32             4    0[BANK3 ] long 
  p               3    0        PTR unsigned char 
  stp             2    4[BANK3 ] PTR struct .
		 -> stSysData(240), 
 Return value:  Size  Location     Type
                  1    wreg      void 
 Registers used:
		wreg, fsr0l, fsr0h, fsr2l, fsr2h, status,2, status,0, tblptrl, tblptrh, tblptru, prodl, prodh, cstack
 Tracked objects:
		On entry : 
		On exit  : 
		Unchanged: 
 Data sizes:     COMRAM   BANK0   BANK1   BANK2   BANK3   BANK4   BANK5   BANK6   BANK7   BANK8   BANK9  BANK10  BANK11  BANK12  BANK13  BANK14  BANK15
      Params:         0       0       0       0       0       0       0       0       0       0       0       0       0       0       0       0       0
      Locals:         0       0       0       0       6       0       0       0       0       0       0       0       0       0       0       0       0
      Temps:          0       0       0       0       0       0       0       0       0       0       0       0       0       0       0       0       0
      Totals:         0       0       0       0       6       0       0       0       0       0       0       0       0       0       0       0       0
Total ram usage:        6 bytes
 Hardware stack levels used:    1
 Hardware stack levels required when called:    8
 This function calls:
		___exit_menu_to_home_unsave
		___mflot32_2_int32
		___sys_data_save_write_flash
 This function is called by:
		_key_process_set_long
 This function uses a non-reentrant model


 *************** function ___set_long_base_zero *****************
 Defined at:
		line 872 in file "src/api/key_menu.c"
 Parameters:    Size  Location     Type
		None
 Auto vars:     Size  Location     Type
  t32             4    0[BANK3 ] long 
  p               3    0        PTR unsigned char 
  stp             2    4[BANK3 ] PTR struct .
		 -> stSysData(240), 
 Return value:  Size  Location     Type
                  1    wreg      void 
 Registers used:
		wreg, fsr0l, fsr0h, fsr2l, fsr2h, status,2, status,0, tblptrl, tblptrh, tblptru, prodl, prodh, cstack
 Tracked objects:
		On entry : 
		On exit  : 
		Unchanged: 
 Data sizes:     COMRAM   BANK0   BANK1   BANK2   BANK3   BANK4   BANK5   BANK6   BANK7   BANK8   BANK9  BANK10  BANK11  BANK12  BANK13  BANK14  BANK15
      Params:         0       0       0       0       0       0       0       0       0       0       0       0       0       0       0       0       0
      Locals:         0       0       0       0       6       0       0       0       0       0       0       0       0       0       0       0       0
      Temps:          0       0       0       0       0       0       0       0       0       0       0       0       0       0       0       0       0
      Totals:         0       0       0       0       6       0       0       0       0       0       0       0       0       0       0       0       0
Total ram usage:        6 bytes
 Hardware stack levels used:    1
 Hardware stack levels required when called:    8
 This function calls:
		___exit_menu_to_home_unsave
		___mflot32_2_int32
		___sys_data_save_write_flash
 This function is called by:
		_key_process_set_long
 This function uses a non-reentrant model


 *************** function ___set_long_bar_level_scale *****************
 Defined at:
		line 886 in file "src/api/key_menu.c"
 Parameters:    Size  Location     Type
		None
 Auto vars:     Size  Location     Type
  t32             4    0        long 
  stp             2  133[BANK0 ] PTR struct .
		 -> stSysData(240), 
  p               2  131[BANK0 ] PTR int 
		 -> adjValue(4), 
 Return value:  Size  Location     Type
                  1    wreg      void 
 Registers used:
		wreg, fsr0l, fsr0h, fsr1l, fsr1h, fsr2l, fsr2h, status,2, status,0, tblptrl, tblptrh, tblptru, prodl, prodh, cstack
 Tracked objects:
		On entry : 
		On exit  : 
		Unchanged: 
 Data sizes:     COMRAM   BANK0   BANK1   BANK2   BANK3   BANK4   BANK5   BANK6   BANK7   BANK8   BANK9  BANK10  BANK11  BANK12  BANK13  BANK14  BANK15
      Params:         0       0       0       0       0       0       0       0       0       0       0       0       0       0       0       0       0
      Locals:         0       4       0       0       0       0       0       0       0       0       0       0       0       0       0       0       0
      Temps:          0       0       0       0       0       0       0       0       0       0       0       0       0       0       0       0       0
      Totals:         0       4       0       0       0       0       0       0       0       0       0       0       0       0       0       0       0
Total ram usage:        4 bytes
 Hardware stack levels used:    1
 Hardware stack levels required when called:    8
 This function calls:
		___exit_menu_to_home_unsave
		___sys_data_save_write_flash
 This function is called by:
		_key_process_set_long
 This function uses a non-reentrant model


 *************** function _key_process_set_down_long *****************
 Defined at:
		line 580 in file "src/api/key_menu.c"
 Parameters:    Size  Location     Type
		None
 Auto vars:     Size  Location     Type
		None
 Return value:  Size  Location     Type
                  1    wreg      void 
 Registers used:
		wreg, fsr2l, fsr2h, status,2, status,0, prodl, prodh, cstack
 Tracked objects:
		On entry : 
		On exit  : 
		Unchanged: 
 Data sizes:     COMRAM   BANK0   BANK1   BANK2   BANK3   BANK4   BANK5   BANK6   BANK7   BANK8   BANK9  BANK10  BANK11  BANK12  BANK13  BANK14  BANK15
      Params:         0       0       0       0       0       0       0       0       0       0       0       0       0       0       0       0       0
      Locals:         0       0       0       0       0       0       0       0       0       0       0       0       0       0       0       0       0
      Temps:          0       2       0       0       0       0       0       0       0       0       0       0       0       0       0       0       0
      Totals:         0       2       0       0       0       0       0       0       0       0       0       0       0       0       0       0       0
Total ram usage:        2 bytes
 Hardware stack levels used:    1
 Hardware stack levels required when called:    7
 This function calls:
		___enter_menu_bar_scale
		___enter_menu_calib_press
		___enter_menu_calib_press_diff
		___enter_menu_epr_calib
		___enter_menu_epr_ilp_scale
		___enter_menu_poly_coeffic
		___enter_menu_set_base_zero
		___enter_menu_set_density
		___enter_menu_set_pose_size
		___enter_menu_warn_type
		___enter_menu_warn_value
		___enter_menu_work_mode
 This function is called by:
		_key_process
 This function uses a non-reentrant model


 *************** function ___enter_menu_work_mode *****************
 Defined at:
		line 341 in file "src/api/key_menu.c"
 Parameters:    Size  Location     Type
		None
 Auto vars:     Size  Location     Type
		None
 Return value:  Size  Location     Type
                  1    wreg      void 
 Registers used:
		wreg, status,2
 Tracked objects:
		On entry : 
		On exit  : 
		Unchanged: 
 Data sizes:     COMRAM   BANK0   BANK1   BANK2   BANK3   BANK4   BANK5   BANK6   BANK7   BANK8   BANK9  BANK10  BANK11  BANK12  BANK13  BANK14  BANK15
      Params:         0       0       0       0       0       0       0       0       0       0       0       0       0       0       0       0       0
      Locals:         0       0       0       0       0       0       0       0       0       0       0       0       0       0       0       0       0
      Temps:          0       0       0       0       0       0       0       0       0       0       0       0       0       0       0       0       0
      Totals:         0       0       0       0       0       0       0       0       0       0       0       0       0       0       0       0       0
Total ram usage:        0 bytes
 Hardware stack levels used:    1
 Hardware stack levels required when called:    4
 This function calls:
		Nothing
 This function is called by:
		_key_process_set_down_long
 This function uses a non-reentrant model


 *************** function ___enter_menu_set_density *****************
 Defined at:
		line 112 in file "src/api/key_menu.c"
 Parameters:    Size  Location     Type
		None
 Auto vars:     Size  Location     Type
  t32             4   33[BANK0 ] long 
  fps             2   31[BANK0 ] PTR struct .
		 -> stSysData(240), 
 Return value:  Size  Location     Type
                  1    wreg      void 
 Registers used:
		wreg, fsr2l, fsr2h, status,2, status,0, cstack
 Tracked objects:
		On entry : 
		On exit  : 
		Unchanged: 
 Data sizes:     COMRAM   BANK0   BANK1   BANK2   BANK3   BANK4   BANK5   BANK6   BANK7   BANK8   BANK9  BANK10  BANK11  BANK12  BANK13  BANK14  BANK15
      Params:         0       0       0       0       0       0       0       0       0       0       0       0       0       0       0       0       0
      Locals:         0       6       0       0       0       0       0       0       0       0       0       0       0       0       0       0       0
      Temps:          0       2       0       0       0       0       0       0       0       0       0       0       0       0       0       0       0
      Totals:         0       8       0       0       0       0       0       0       0       0       0       0       0       0       0       0       0
Total ram usage:        8 bytes
 Hardware stack levels used:    1
 Hardware stack levels required when called:    6
 This function calls:
		___int32_2_mflot32
 This function is called by:
		_key_process_set_down_long
 This function uses a non-reentrant model


 *************** function ___enter_menu_set_base_zero *****************
 Defined at:
		line 158 in file "src/api/key_menu.c"
 Parameters:    Size  Location     Type
		None
 Auto vars:     Size  Location     Type
  t32             4   31[BANK0 ] long 
  fps             2   29[BANK0 ] PTR struct .
		 -> stSysData(240), 
 Return value:  Size  Location     Type
                  1    wreg      void 
 Registers used:
		wreg, fsr2l, fsr2h, status,2, status,0, cstack
 Tracked objects:
		On entry : 
		On exit  : 
		Unchanged: 
 Data sizes:     COMRAM   BANK0   BANK1   BANK2   BANK3   BANK4   BANK5   BANK6   BANK7   BANK8   BANK9  BANK10  BANK11  BANK12  BANK13  BANK14  BANK15
      Params:         0       0       0       0       0       0       0       0       0       0       0       0       0       0       0       0       0
      Locals:         0       6       0       0       0       0       0       0       0       0       0       0       0       0       0       0       0
      Temps:          0       0       0       0       0       0       0       0       0       0       0       0       0       0       0       0       0
      Totals:         0       6       0       0       0       0       0       0       0       0       0       0       0       0       0       0       0
Total ram usage:        6 bytes
 Hardware stack levels used:    1
 Hardware stack levels required when called:    6
 This function calls:
		___int32_2_mflot32
 This function is called by:
		_key_process_set_down_long
 This function uses a non-reentrant model


 *************** function ___enter_menu_bar_scale *****************
 Defined at:
		line 331 in file "src/api/key_menu.c"
 Parameters:    Size  Location     Type
		None
 Auto vars:     Size  Location     Type
  fps             2    2[BANK0 ] PTR struct .
		 -> stSysData(240), 
 Return value:  Size  Location     Type
                  1    wreg      void 
 Registers used:
		wreg, fsr2l, fsr2h, status,2, status,0
 Tracked objects:
		On entry : 
		On exit  : 
		Unchanged: 
 Data sizes:     COMRAM   BANK0   BANK1   BANK2   BANK3   BANK4   BANK5   BANK6   BANK7   BANK8   BANK9  BANK10  BANK11  BANK12  BANK13  BANK14  BANK15
      Params:         0       0       0       0       0       0       0       0       0       0       0       0       0       0       0       0       0
      Locals:         0       2       0       0       0       0       0       0       0       0       0       0       0       0       0       0       0
      Temps:          0       2       0       0       0       0       0       0       0       0       0       0       0       0       0       0       0
      Totals:         0       4       0       0       0       0       0       0       0       0       0       0       0       0       0       0       0
Total ram usage:        4 bytes
 Hardware stack levels used:    1
 Hardware stack levels required when called:    4
 This function calls:
		Nothing
 This function is called by:
		_key_process_set_down_long
 This function uses a non-reentrant model


 *************** function _key_process_set *****************
 Defined at:
		line 935 in file "src/api/key_menu.c"
 Parameters:    Size  Location     Type
		None
 Auto vars:     Size  Location     Type
		None
 Return value:  Size  Location     Type
                  1    wreg      void 
 Registers used:
		wreg, fsr0l, fsr0h, fsr1l, fsr1h, fsr2l, fsr2h, status,2, status,0, pclath, tosl, tblptrl, tblptrh, tblptru, prodl, prodh, cstack
 Tracked objects:
		On entry : 
		On exit  : 
		Unchanged: 
 Data sizes:     COMRAM   BANK0   BANK1   BANK2   BANK3   BANK4   BANK5   BANK6   BANK7   BANK8   BANK9  BANK10  BANK11  BANK12  BANK13  BANK14  BANK15
      Params:         0       0       0       0       0       0       0       0       0       0       0       0       0       0       0       0       0
      Locals:         0       0       0       0       0       0       0       0       0       0       0       0       0       0       0       0       0
      Temps:          0       0       0       0       0       0       0       0       0       0       0       0       0       0       0       0       0
      Totals:         0       0       0       0       0       0       0       0       0       0       0       0       0       0       0       0       0
Total ram usage:        0 bytes
 Hardware stack levels used:    1
 Hardware stack levels required when called:   10
 This function calls:
		___enter_menu_password
		___set_short_diff_calib
		___set_short_epr_ilp_scale
		___set_short_epr_param
		___set_short_poly_coefic
		___set_short_pose_size
		___set_short_pr_calib
		___set_short_warn_type
		___set_short_warn_value
 This function is called by:
		_key_process
 This function uses a non-reentrant model


 *************** function ___set_short_warn_value *****************
 Defined at:
		line 777 in file "src/api/key_menu.c"
 Parameters:    Size  Location     Type
  gohome          1    wreg     unsigned char 
 Auto vars:     Size  Location     Type
  gohome          1    0[BANK3 ] unsigned char 
  t32             4    1[BANK3 ] long 
  stp             2    5[BANK3 ] PTR struct .
		 -> stSysData(240), 
  t8              1    7[BANK3 ] unsigned char 
 Return value:  Size  Location     Type
                  1    wreg      void 
 Registers used:
		wreg, fsr0l, fsr0h, fsr2l, fsr2h, status,2, status,0, tblptrl, tblptrh, tblptru, prodl, prodh, cstack
 Tracked objects:
		On entry : 
		On exit  : 
		Unchanged: 
 Data sizes:     COMRAM   BANK0   BANK1   BANK2   BANK3   BANK4   BANK5   BANK6   BANK7   BANK8   BANK9  BANK10  BANK11  BANK12  BANK13  BANK14  BANK15
      Params:         0       0       0       0       0       0       0       0       0       0       0       0       0       0       0       0       0
      Locals:         0       0       0       0       8       0       0       0       0       0       0       0       0       0       0       0       0
      Temps:          0       2       0       0       0       0       0       0       0       0       0       0       0       0       0       0       0
      Totals:         0       2       0       0       8       0       0       0       0       0       0       0       0       0       0       0       0
Total ram usage:       10 bytes
 Hardware stack levels used:    1
 Hardware stack levels required when called:    8
 This function calls:
		___enter_menu_warn_value
		___exit_menu_to_home_unsave
		___mflot32_2_int32
		___sys_data_save_write_flash
 This function is called by:
		_key_process_set_long
		_key_process_set
 This function uses a non-reentrant model


 *************** function ___enter_menu_warn_value *****************
 Defined at:
		line 260 in file "src/api/key_menu.c"
 Parameters:    Size  Location     Type
  __subMenu       1    wreg     unsigned char 
 Auto vars:     Size  Location     Type
  __subMenu       1   31[BANK0 ] unsigned char 
  t32             4   35[BANK0 ] long 
  fps             2   32[BANK0 ] PTR struct .
		 -> stSysData(240), 
  t8              1   34[BANK0 ] unsigned char 
 Return value:  Size  Location     Type
                  1    wreg      void 
 Registers used:
		wreg, fsr2l, fsr2h, status,2, status,0, prodl, prodh, cstack
 Tracked objects:
		On entry : 
		On exit  : 
		Unchanged: 
 Data sizes:     COMRAM   BANK0   BANK1   BANK2   BANK3   BANK4   BANK5   BANK6   BANK7   BANK8   BANK9  BANK10  BANK11  BANK12  BANK13  BANK14  BANK15
      Params:         0       0       0       0       0       0       0       0       0       0       0       0       0       0       0       0       0
      Locals:         0       8       0       0       0       0       0       0       0       0       0       0       0       0       0       0       0
      Temps:          0       2       0       0       0       0       0       0       0       0       0       0       0       0       0       0       0
      Totals:         0      10       0       0       0       0       0       0       0       0       0       0       0       0       0       0       0
Total ram usage:       10 bytes
 Hardware stack levels used:    1
 Hardware stack levels required when called:    6
 This function calls:
		___int32_2_mflot32
 This function is called by:
		_key_process_set_down_long
		___set_short_warn_value
 This function uses a non-reentrant model


 *************** function ___set_short_warn_type *****************
 Defined at:
		line 759 in file "src/api/key_menu.c"
 Parameters:    Size  Location     Type
  gohome          1    wreg     unsigned char 
 Auto vars:     Size  Location     Type
  gohome          1    0[BANK1 ] unsigned char 
  stp             2    3[BANK1 ] PTR struct .
		 -> stSysData(240), 
  p               2    1[BANK1 ] PTR unsigned char 
		 -> adjValue(4), 
 Return value:  Size  Location     Type
                  1    wreg      void 
 Registers used:
		wreg, fsr0l, fsr0h, fsr1l, fsr1h, fsr2l, fsr2h, status,2, status,0, tblptrl, tblptrh, tblptru, prodl, prodh, cstack
 Tracked objects:
		On entry : 
		On exit  : 
		Unchanged: 
 Data sizes:     COMRAM   BANK0   BANK1   BANK2   BANK3   BANK4   BANK5   BANK6   BANK7   BANK8   BANK9  BANK10  BANK11  BANK12  BANK13  BANK14  BANK15
      Params:         0       0       0       0       0       0       0       0       0       0       0       0       0       0       0       0       0
      Locals:         0       0       5       0       0       0       0       0       0       0       0       0       0       0       0       0       0
      Temps:          0       2       0       0       0       0       0       0       0       0       0       0       0       0       0       0       0
      Totals:         0       2       5       0       0       0       0       0       0       0       0       0       0       0       0       0       0
Total ram usage:        7 bytes
 Hardware stack levels used:    1
 Hardware stack levels required when called:    8
 This function calls:
		___enter_menu_warn_type
		___exit_menu_to_home_unsave
		___sys_data_save_write_flash
 This function is called by:
		_key_process_set_long
		_key_process_set
 This function uses a non-reentrant model


 *************** function ___enter_menu_warn_type *****************
 Defined at:
		line 249 in file "src/api/key_menu.c"
 Parameters:    Size  Location     Type
  __subMenu       1    wreg     unsigned char 
 Auto vars:     Size  Location     Type
  __subMenu       1    2[BANK0 ] unsigned char 
  fps             2    3[BANK0 ] PTR struct .
		 -> stSysData(240), 
 Return value:  Size  Location     Type
                  1    wreg      void 
 Registers used:
		wreg, fsr2l, fsr2h, status,2, status,0, prodl, prodh
 Tracked objects:
		On entry : 
		On exit  : 
		Unchanged: 
 Data sizes:     COMRAM   BANK0   BANK1   BANK2   BANK3   BANK4   BANK5   BANK6   BANK7   BANK8   BANK9  BANK10  BANK11  BANK12  BANK13  BANK14  BANK15
      Params:         0       0       0       0       0       0       0       0       0       0       0       0       0       0       0       0       0
      Locals:         0       3       0       0       0       0       0       0       0       0       0       0       0       0       0       0       0
      Temps:          0       2       0       0       0       0       0       0       0       0       0       0       0       0       0       0       0
      Totals:         0       5       0       0       0       0       0       0       0       0       0       0       0       0       0       0       0
Total ram usage:        5 bytes
 Hardware stack levels used:    1
 Hardware stack levels required when called:    4
 This function calls:
		Nothing
 This function is called by:
		_key_process_set_down_long
		___set_short_warn_type
 This function uses a non-reentrant model


 *************** function ___set_short_pr_calib *****************
 Defined at:
		line 700 in file "src/api/key_menu.c"
 Parameters:    Size  Location     Type
  gohome          1    wreg     unsigned char 
 Auto vars:     Size  Location     Type
  gohome          1   52[BANK0 ] unsigned char 
  t32             4   55[BANK0 ] unsigned long 
  pra             4   48[BANK0 ] unsigned long 
  t16             2   59[BANK0 ] unsigned int 
  adjv            1   61[BANK0 ] unsigned char 
  saveFlg         1   54[BANK0 ] unsigned char 
  t8              1   53[BANK0 ] unsigned char 
 Return value:  Size  Location     Type
                  1    wreg      void 
 Registers used:
		wreg, fsr2l, fsr2h, status,2, status,0, pclath, tosl, tblptrl, tblptrh, tblptru, prodl, prodh, cstack
 Tracked objects:
		On entry : 
		On exit  : 
		Unchanged: 
 Data sizes:     COMRAM   BANK0   BANK1   BANK2   BANK3   BANK4   BANK5   BANK6   BANK7   BANK8   BANK9  BANK10  BANK11  BANK12  BANK13  BANK14  BANK15
      Params:         0       0       0       0       0       0       0       0       0       0       0       0       0       0       0       0       0
      Locals:         0      14       0       0       0       0       0       0       0       0       0       0       0       0       0       0       0
      Temps:          0       6       0       0       0       0       0       0       0       0       0       0       0       0       0       0       0
      Totals:         0      20       0       0       0       0       0       0       0       0       0       0       0       0       0       0       0
Total ram usage:       20 bytes
 Hardware stack levels used:    1
 Hardware stack levels required when called:    9
 This function calls:
		___enter_menu_calib_press
		___exit_menu_to_home_unsave
		___mflot32_2_int32
		_at24c02_write_n_byte
		_crc_append
 This function is called by:
		_key_process_set_long
		_key_process_set
 This function uses a non-reentrant model


 *************** function ___enter_menu_calib_press *****************
 Defined at:
		line 217 in file "src/api/key_menu.c"
 Parameters:    Size  Location     Type
  row             1    wreg     unsigned char 
  col             1   31[COMRAM] unsigned char 
 Auto vars:     Size  Location     Type
  row             1   35[BANK0 ] unsigned char 
  t32             4   38[BANK0 ] long 
  stp             2   36[BANK0 ] PTR struct .
		 -> prCalibTabDef(162), 
 Return value:  Size  Location     Type
                  1    wreg      void 
 Registers used:
		wreg, fsr2l, fsr2h, status,2, status,0, prodl, prodh, cstack
 Tracked objects:
		On entry : 
		On exit  : 
		Unchanged: 
 Data sizes:     COMRAM   BANK0   BANK1   BANK2   BANK3   BANK4   BANK5   BANK6   BANK7   BANK8   BANK9  BANK10  BANK11  BANK12  BANK13  BANK14  BANK15
      Params:         1       0       0       0       0       0       0       0       0       0       0       0       0       0       0       0       0
      Locals:         0       7       0       0       0       0       0       0       0       0       0       0       0       0       0       0       0
      Temps:          0       6       0       0       0       0       0       0       0       0       0       0       0       0       0       0       0
      Totals:         1      13       0       0       0       0       0       0       0       0       0       0       0       0       0       0       0
Total ram usage:       14 bytes
 Hardware stack levels used:    1
 Hardware stack levels required when called:    6
 This function calls:
		___int32_2_mflot32
 This function is called by:
		_key_process_set_down_long
		___set_short_pr_calib
 This function uses a non-reentrant model


 *************** function ___set_short_pose_size *****************
 Defined at:
		line 626 in file "src/api/key_menu.c"
 Parameters:    Size  Location     Type
  gohome          1    wreg     unsigned char 
 Auto vars:     Size  Location     Type
  gohome          1    0[BANK3 ] unsigned char 
  t32             4    3[BANK3 ] long 
  stp             2    7[BANK3 ] PTR struct .
		 -> stSysData(240), 
  p               2    1[BANK3 ] PTR unsigned char 
		 -> adjValue(4), 
 Return value:  Size  Location     Type
                  1    wreg      void 
 Registers used:
		wreg, fsr0l, fsr0h, fsr1l, fsr1h, fsr2l, fsr2h, status,2, status,0, tblptrl, tblptrh, tblptru, prodl, prodh, cstack
 Tracked objects:
		On entry : 
		On exit  : 
		Unchanged: 
 Data sizes:     COMRAM   BANK0   BANK1   BANK2   BANK3   BANK4   BANK5   BANK6   BANK7   BANK8   BANK9  BANK10  BANK11  BANK12  BANK13  BANK14  BANK15
      Params:         0       0       0       0       0       0       0       0       0       0       0       0       0       0       0       0       0
      Locals:         0       0       0       0       9       0       0       0       0       0       0       0       0       0       0       0       0
      Temps:          0       0       0       0       0       0       0       0       0       0       0       0       0       0       0       0       0
      Totals:         0       0       0       0       9       0       0       0       0       0       0       0       0       0       0       0       0
Total ram usage:        9 bytes
 Hardware stack levels used:    1
 Hardware stack levels required when called:    8
 This function calls:
		___enter_menu_set_d
		___enter_menu_set_h
		___enter_menu_set_pose_size
		___exit_menu_to_home_unsave
		___mflot32_2_int32
		___sys_data_save_write_flash
 This function is called by:
		_key_process_set_long
		_key_process_set
 This function uses a non-reentrant model


 *************** function ___enter_menu_set_pose_size *****************
 Defined at:
		line 125 in file "src/api/key_menu.c"
 Parameters:    Size  Location     Type
		None
 Auto vars:     Size  Location     Type
  fps             2    0[BANK0 ] PTR struct .
		 -> stSysData(240), 
 Return value:  Size  Location     Type
                  1    wreg      void 
 Registers used:
		wreg, fsr2l, fsr2h, status,2, status,0
 Tracked objects:
		On entry : 
		On exit  : 
		Unchanged: 
 Data sizes:     COMRAM   BANK0   BANK1   BANK2   BANK3   BANK4   BANK5   BANK6   BANK7   BANK8   BANK9  BANK10  BANK11  BANK12  BANK13  BANK14  BANK15
      Params:         0       0       0       0       0       0       0       0       0       0       0       0       0       0       0       0       0
      Locals:         0       2       0       0       0       0       0       0       0       0       0       0       0       0       0       0       0
      Temps:          0       0       0       0       0       0       0       0       0       0       0       0       0       0       0       0       0
      Totals:         0       2       0       0       0       0       0       0       0       0       0       0       0       0       0       0       0
Total ram usage:        2 bytes
 Hardware stack levels used:    1
 Hardware stack levels required when called:    4
 This function calls:
		Nothing
 This function is called by:
		_key_process_set_down_long
		___set_short_pose_size
 This function uses a non-reentrant model


 *************** function ___enter_menu_set_h *****************
 Defined at:
		line 147 in file "src/api/key_menu.c"
 Parameters:    Size  Location     Type
		None
 Auto vars:     Size  Location     Type
  t32             4   31[BANK0 ] long 
  fps             2   29[BANK0 ] PTR struct .
		 -> stSysData(240), 
 Return value:  Size  Location     Type
                  1    wreg      void 
 Registers used:
		wreg, fsr2l, fsr2h, status,2, status,0, cstack
 Tracked objects:
		On entry : 
		On exit  : 
		Unchanged: 
 Data sizes:     COMRAM   BANK0   BANK1   BANK2   BANK3   BANK4   BANK5   BANK6   BANK7   BANK8   BANK9  BANK10  BANK11  BANK12  BANK13  BANK14  BANK15
      Params:         0       0       0       0       0       0       0       0       0       0       0       0       0       0       0       0       0
      Locals:         0       6       0       0       0       0       0       0       0       0       0       0       0       0       0       0       0
      Temps:          0       0       0       0       0       0       0       0       0       0       0       0       0       0       0       0       0
      Totals:         0       6       0       0       0       0       0       0       0       0       0       0       0       0       0       0       0
Total ram usage:        6 bytes
 Hardware stack levels used:    1
 Hardware stack levels required when called:    6
 This function calls:
		___int32_2_mflot32
 This function is called by:
		___set_short_pose_size
 This function uses a non-reentrant model


 *************** function ___enter_menu_set_d *****************
 Defined at:
		line 136 in file "src/api/key_menu.c"
 Parameters:    Size  Location     Type
		None
 Auto vars:     Size  Location     Type
  t32             4   31[BANK0 ] long 
  fps             2   29[BANK0 ] PTR struct .
		 -> stSysData(240), 
 Return value:  Size  Location     Type
                  1    wreg      void 
 Registers used:
		wreg, fsr2l, fsr2h, status,2, status,0, cstack
 Tracked objects:
		On entry : 
		On exit  : 
		Unchanged: 
 Data sizes:     COMRAM   BANK0   BANK1   BANK2   BANK3   BANK4   BANK5   BANK6   BANK7   BANK8   BANK9  BANK10  BANK11  BANK12  BANK13  BANK14  BANK15
      Params:         0       0       0       0       0       0       0       0       0       0       0       0       0       0       0       0       0
      Locals:         0       6       0       0       0       0       0       0       0       0       0       0       0       0       0       0       0
      Temps:          0       0       0       0       0       0       0       0       0       0       0       0       0       0       0       0       0
      Totals:         0       6       0       0       0       0       0       0       0       0       0       0       0       0       0       0       0
Total ram usage:        6 bytes
 Hardware stack levels used:    1
 Hardware stack levels required when called:    6
 This function calls:
		___int32_2_mflot32
 This function is called by:
		___set_short_pose_size
 This function uses a non-reentrant model


 *************** function ___set_short_poly_coefic *****************
 Defined at:
		line 740 in file "src/api/key_menu.c"
 Parameters:    Size  Location     Type
  gohome          1    wreg     unsigned char 
 Auto vars:     Size  Location     Type
  gohome          1    0[BANK1 ] unsigned char 
  stp             2    3[BANK1 ] PTR struct .
		 -> stSysData(240), 
  p               2    1[BANK1 ] PTR int 
		 -> adjValue(4), 
 Return value:  Size  Location     Type
                  1    wreg      void 
 Registers used:
		wreg, fsr0l, fsr0h, fsr1l, fsr1h, fsr2l, fsr2h, status,2, status,0, tblptrl, tblptrh, tblptru, prodl, prodh, cstack
 Tracked objects:
		On entry : 
		On exit  : 
		Unchanged: 
 Data sizes:     COMRAM   BANK0   BANK1   BANK2   BANK3   BANK4   BANK5   BANK6   BANK7   BANK8   BANK9  BANK10  BANK11  BANK12  BANK13  BANK14  BANK15
      Params:         0       0       0       0       0       0       0       0       0       0       0       0       0       0       0       0       0
      Locals:         0       0       5       0       0       0       0       0       0       0       0       0       0       0       0       0       0
      Temps:          0       0       0       0       0       0       0       0       0       0       0       0       0       0       0       0       0
      Totals:         0       0       5       0       0       0       0       0       0       0       0       0       0       0       0       0       0
Total ram usage:        5 bytes
 Hardware stack levels used:    1
 Hardware stack levels required when called:    8
 This function calls:
		___enter_menu_poly_coeffic
		___exit_menu_to_home_unsave
		___sys_data_save_write_flash
 This function is called by:
		_key_process_set_long
		_key_process_set
 This function uses a non-reentrant model


 *************** function ___enter_menu_poly_coeffic *****************
 Defined at:
		line 238 in file "src/api/key_menu.c"
 Parameters:    Size  Location     Type
  __subMenu       1    wreg     unsigned char 
 Auto vars:     Size  Location     Type
  __subMenu       1    2[BANK0 ] unsigned char 
  fps             2    3[BANK0 ] PTR struct .
		 -> stSysData(240), 
 Return value:  Size  Location     Type
                  1    wreg      void 
 Registers used:
		wreg, fsr2l, fsr2h, status,2, status,0, prodl, prodh
 Tracked objects:
		On entry : 
		On exit  : 
		Unchanged: 
 Data sizes:     COMRAM   BANK0   BANK1   BANK2   BANK3   BANK4   BANK5   BANK6   BANK7   BANK8   BANK9  BANK10  BANK11  BANK12  BANK13  BANK14  BANK15
      Params:         0       0       0       0       0       0       0       0       0       0       0       0       0       0       0       0       0
      Locals:         0       3       0       0       0       0       0       0       0       0       0       0       0       0       0       0       0
      Temps:          0       2       0       0       0       0       0       0       0       0       0       0       0       0       0       0       0
      Totals:         0       5       0       0       0       0       0       0       0       0       0       0       0       0       0       0       0
Total ram usage:        5 bytes
 Hardware stack levels used:    1
 Hardware stack levels required when called:    4
 This function calls:
		Nothing
 This function is called by:
		_key_process_set_down_long
		___set_short_poly_coefic
 This function uses a non-reentrant model


 *************** function ___set_short_epr_param *****************
 Defined at:
		line 809 in file "src/api/key_menu.c"
 Parameters:    Size  Location     Type
  gohome          1    wreg     unsigned char 
 Auto vars:     Size  Location     Type
  gohome          1    0[BANK3 ] unsigned char 
  t32             4    1[BANK3 ] long 
  p               3    0        PTR unsigned char 
  stp             2    5[BANK3 ] PTR struct .
		 -> stSysData(240), 
 Return value:  Size  Location     Type
                  1    wreg      void 
 Registers used:
		wreg, fsr0l, fsr0h, fsr2l, fsr2h, status,2, status,0, tblptrl, tblptrh, tblptru, prodl, prodh, cstack
 Tracked objects:
		On entry : 
		On exit  : 
		Unchanged: 
 Data sizes:     COMRAM   BANK0   BANK1   BANK2   BANK3   BANK4   BANK5   BANK6   BANK7   BANK8   BANK9  BANK10  BANK11  BANK12  BANK13  BANK14  BANK15
      Params:         0       0       0       0       0       0       0       0       0       0       0       0       0       0       0       0       0
      Locals:         0       0       0       0       7       0       0       0       0       0       0       0       0       0       0       0       0
      Temps:          0       0       0       0       0       0       0       0       0       0       0       0       0       0       0       0       0
      Totals:         0       0       0       0       7       0       0       0       0       0       0       0       0       0       0       0       0
Total ram usage:        7 bytes
 Hardware stack levels used:    1
 Hardware stack levels required when called:    8
 This function calls:
		___enter_menu_epr_calib
		___exit_menu_to_home_unsave
		___mflot32_2_int32
		___sys_data_save_write_flash
 This function is called by:
		_key_process_set_long
		_key_process_set
 This function uses a non-reentrant model


 *************** function ___enter_menu_epr_calib *****************
 Defined at:
		line 288 in file "src/api/key_menu.c"
 Parameters:    Size  Location     Type
  __subMenu       1    wreg     unsigned char 
 Auto vars:     Size  Location     Type
  __subMenu       1   29[BANK0 ] unsigned char 
  t32             4   30[BANK0 ] long 
  fps             2   34[BANK0 ] PTR struct .
		 -> stSysData(240), 
 Return value:  Size  Location     Type
                  1    wreg      void 
 Registers used:
		wreg, fsr2l, fsr2h, status,2, status,0, cstack
 Tracked objects:
		On entry : 
		On exit  : 
		Unchanged: 
 Data sizes:     COMRAM   BANK0   BANK1   BANK2   BANK3   BANK4   BANK5   BANK6   BANK7   BANK8   BANK9  BANK10  BANK11  BANK12  BANK13  BANK14  BANK15
      Params:         0       0       0       0       0       0       0       0       0       0       0       0       0       0       0       0       0
      Locals:         0       7       0       0       0       0       0       0       0       0       0       0       0       0       0       0       0
      Temps:          0       0       0       0       0       0       0       0       0       0       0       0       0       0       0       0       0
      Totals:         0       7       0       0       0       0       0       0       0       0       0       0       0       0       0       0       0
Total ram usage:        7 bytes
 Hardware stack levels used:    1
 Hardware stack levels required when called:    6
 This function calls:
		___int32_2_mflot32
 This function is called by:
		_key_process_set_down_long
		___set_short_epr_param
 This function uses a non-reentrant model


 *************** function ___set_short_epr_ilp_scale *****************
 Defined at:
		line 833 in file "src/api/key_menu.c"
 Parameters:    Size  Location     Type
  gohome          1    wreg     unsigned char 
 Auto vars:     Size  Location     Type
  gohome          1    0[BANK3 ] unsigned char 
  t32             4    1[BANK3 ] long 
  p               3    0        PTR unsigned char 
  stp             2    5[BANK3 ] PTR struct .
		 -> stSysData(240), 
 Return value:  Size  Location     Type
                  1    wreg      void 
 Registers used:
		wreg, fsr0l, fsr0h, fsr2l, fsr2h, status,2, status,0, tblptrl, tblptrh, tblptru, prodl, prodh, cstack
 Tracked objects:
		On entry : 
		On exit  : 
		Unchanged: 
 Data sizes:     COMRAM   BANK0   BANK1   BANK2   BANK3   BANK4   BANK5   BANK6   BANK7   BANK8   BANK9  BANK10  BANK11  BANK12  BANK13  BANK14  BANK15
      Params:         0       0       0       0       0       0       0       0       0       0       0       0       0       0       0       0       0
      Locals:         0       0       0       0       7       0       0       0       0       0       0       0       0       0       0       0       0
      Temps:          0       0       0       0       0       0       0       0       0       0       0       0       0       0       0       0       0
      Totals:         0       0       0       0       7       0       0       0       0       0       0       0       0       0       0       0       0
Total ram usage:        7 bytes
 Hardware stack levels used:    1
 Hardware stack levels required when called:    8
 This function calls:
		___enter_menu_epr_ilp_scale
		___exit_menu_to_home_unsave
		___mflot32_2_int32
		___sys_data_save_write_flash
 This function is called by:
		_key_process_set_long
		_key_process_set
 This function uses a non-reentrant model


 *************** function ___sys_data_save_write_flash *****************
 Defined at:
		line 609 in file "src/api/key_menu.c"
 Parameters:    Size  Location     Type
		None
 Auto vars:     Size  Location     Type
  buf             2  129[BANK0 ] PTR unsigned char 
		 -> stSysData(240), 
  stp             2  127[BANK0 ] PTR struct .
		 -> stSysData(240), 
  ret             1  126[BANK0 ] unsigned char 
 Return value:  Size  Location     Type
                  1    wreg      unsigned char 
 Registers used:
		wreg, fsr0l, fsr0h, fsr2l, fsr2h, status,2, status,0, tblptrl, tblptrh, tblptru, prodl, prodh, cstack
 Tracked objects:
		On entry : 
		On exit  : 
		Unchanged: 
 Data sizes:     COMRAM   BANK0   BANK1   BANK2   BANK3   BANK4   BANK5   BANK6   BANK7   BANK8   BANK9  BANK10  BANK11  BANK12  BANK13  BANK14  BANK15
      Params:         0       0       0       0       0       0       0       0       0       0       0       0       0       0       0       0       0
      Locals:         0       5       0       0       0       0       0       0       0       0       0       0       0       0       0       0       0
      Temps:          0       0       0       0       0       0       0       0       0       0       0       0       0       0       0       0       0
      Totals:         0       5       0       0       0       0       0       0       0       0       0       0       0       0       0       0       0
Total ram usage:        5 bytes
 Hardware stack levels used:    1
 Hardware stack levels required when called:    7
 This function calls:
		_crc_append
		_crc_verify
		_data_sys_cal_v1
		_data_sys_cal_v2
		_m_flash_read
		_m_flash_write
 This function is called by:
		___set_short_pose_size
		___set_short_poly_coefic
		___set_short_warn_type
		___set_short_warn_value
		___set_short_epr_param
		___set_short_epr_ilp_scale
		___set_long_density
		___set_long_base_zero
		___set_long_bar_level_scale
 This function uses a non-reentrant model


 *************** function ___enter_menu_epr_ilp_scale *****************
 Defined at:
		line 309 in file "src/api/key_menu.c"
 Parameters:    Size  Location     Type
  __subMenu       1    wreg     unsigned char 
 Auto vars:     Size  Location     Type
  __subMenu       1   29[BANK0 ] unsigned char 
  t32             4   30[BANK0 ] long 
  fps             2   34[BANK0 ] PTR struct .
		 -> stSysData(240), 
 Return value:  Size  Location     Type
                  1    wreg      void 
 Registers used:
		wreg, fsr2l, fsr2h, status,2, status,0, cstack
 Tracked objects:
		On entry : 
		On exit  : 
		Unchanged: 
 Data sizes:     COMRAM   BANK0   BANK1   BANK2   BANK3   BANK4   BANK5   BANK6   BANK7   BANK8   BANK9  BANK10  BANK11  BANK12  BANK13  BANK14  BANK15
      Params:         0       0       0       0       0       0       0       0       0       0       0       0       0       0       0       0       0
      Locals:         0       7       0       0       0       0       0       0       0       0       0       0       0       0       0       0       0
      Temps:          0       0       0       0       0       0       0       0       0       0       0       0       0       0       0       0       0
      Totals:         0       7       0       0       0       0       0       0       0       0       0       0       0       0       0       0       0
Total ram usage:        7 bytes
 Hardware stack levels used:    1
 Hardware stack levels required when called:    6
 This function calls:
		___int32_2_mflot32
 This function is called by:
		_key_process_set_down_long
		___set_short_epr_ilp_scale
 This function uses a non-reentrant model


 *************** function ___set_short_diff_calib *****************
 Defined at:
		line 660 in file "src/api/key_menu.c"
 Parameters:    Size  Location     Type
  gohome          1    wreg     unsigned char 
 Auto vars:     Size  Location     Type
  gohome          1   52[BANK0 ] unsigned char 
  t32             4   55[BANK0 ] unsigned long 
  pra             4   48[BANK0 ] unsigned long 
  t16             2   59[BANK0 ] unsigned int 
  adjv            1   61[BANK0 ] unsigned char 
  saveFlg         1   54[BANK0 ] unsigned char 
  t8              1   53[BANK0 ] unsigned char 
 Return value:  Size  Location     Type
                  1    wreg      void 
 Registers used:
		wreg, fsr2l, fsr2h, status,2, status,0, pclath, tosl, tblptrl, tblptrh, tblptru, prodl, prodh, cstack
 Tracked objects:
		On entry : 
		On exit  : 
		Unchanged: 
 Data sizes:     COMRAM   BANK0   BANK1   BANK2   BANK3   BANK4   BANK5   BANK6   BANK7   BANK8   BANK9  BANK10  BANK11  BANK12  BANK13  BANK14  BANK15
      Params:         0       0       0       0       0       0       0       0       0       0       0       0       0       0       0       0       0
      Locals:         0      14       0       0       0       0       0       0       0       0       0       0       0       0       0       0       0
      Temps:          0       6       0       0       0       0       0       0       0       0       0       0       0       0       0       0       0
      Totals:         0      20       0       0       0       0       0       0       0       0       0       0       0       0       0       0       0
Total ram usage:       20 bytes
 Hardware stack levels used:    1
 Hardware stack levels required when called:    9
 This function calls:
		___enter_menu_calib_press_diff
		___exit_menu_to_home_unsave
		___mflot32_2_int32
		_at24c02_write_n_byte
		_crc_append
 This function is called by:
		_key_process_set_long
		_key_process_set
 This function uses a non-reentrant model


 *************** function ___mflot32_2_int32 *****************
 Defined at:
		line 77 in file "src/api/ui.c"
 Parameters:    Size  Location     Type
  x               4   12[BANK0 ] long 
 Auto vars:     Size  Location     Type
  mf              4   21[BANK0 ] struct .
  ret             4   17[BANK0 ] long 
  i               1   16[BANK0 ] unsigned char 
 Return value:  Size  Location     Type
                  4   12[BANK0 ] long 
 Registers used:
		wreg, status,2, status,0, cstack
 Tracked objects:
		On entry : 
		On exit  : 
		Unchanged: 
 Data sizes:     COMRAM   BANK0   BANK1   BANK2   BANK3   BANK4   BANK5   BANK6   BANK7   BANK8   BANK9  BANK10  BANK11  BANK12  BANK13  BANK14  BANK15
      Params:         0       4       0       0       0       0       0       0       0       0       0       0       0       0       0       0       0
      Locals:         0       9       0       0       0       0       0       0       0       0       0       0       0       0       0       0       0
      Temps:          0       0       0       0       0       0       0       0       0       0       0       0       0       0       0       0       0
      Totals:         0      13       0       0       0       0       0       0       0       0       0       0       0       0       0       0       0
Total ram usage:       13 bytes
 Hardware stack levels used:    1
 Hardware stack levels required when called:    5
 This function calls:
		___lmul
 This function is called by:
		___set_short_pose_size
		___set_short_diff_calib
		___set_short_pr_calib
		___set_short_warn_value
		___set_short_epr_param
		___set_short_epr_ilp_scale
		___set_long_density
		___set_long_base_zero
 This function uses a non-reentrant model


 *************** function ___exit_menu_to_home_unsave *****************
 Defined at:
		line 349 in file "src/api/key_menu.c"
 Parameters:    Size  Location     Type
		None
 Auto vars:     Size  Location     Type
		None
 Return value:  Size  Location     Type
                  1    wreg      void 
 Registers used:
		wreg, status,2
 Tracked objects:
		On entry : 
		On exit  : 
		Unchanged: 
 Data sizes:     COMRAM   BANK0   BANK1   BANK2   BANK3   BANK4   BANK5   BANK6   BANK7   BANK8   BANK9  BANK10  BANK11  BANK12  BANK13  BANK14  BANK15
      Params:         0       0       0       0       0       0       0       0       0       0       0       0       0       0       0       0       0
      Locals:         0       0       0       0       0       0       0       0       0       0       0       0       0       0       0       0       0
      Temps:          0       0       0       0       0       0       0       0       0       0       0       0       0       0       0       0       0
      Totals:         0       0       0       0       0       0       0       0       0       0       0       0       0       0       0       0       0
Total ram usage:        0 bytes
 Hardware stack levels used:    1
 Hardware stack levels required when called:    4
 This function calls:
		Nothing
 This function is called by:
		___set_short_pose_size
		___set_short_diff_calib
		___set_short_pr_calib
		___set_short_poly_coefic
		___set_short_warn_type
		___set_short_warn_value
		___set_short_epr_param
		___set_short_epr_ilp_scale
		___set_long_density
		___set_long_base_zero
		___set_long_bar_level_scale
		___set_long_work_mode
		_key_process_set_long
 This function uses a non-reentrant model


 *************** function ___enter_menu_calib_press_diff *****************
 Defined at:
		line 195 in file "src/api/key_menu.c"
 Parameters:    Size  Location     Type
  row             1    wreg     unsigned char 
  col             1   31[COMRAM] unsigned char 
 Auto vars:     Size  Location     Type
  row             1   35[BANK0 ] unsigned char 
  t32             4   38[BANK0 ] long 
  stp             2   36[BANK0 ] PTR struct .
		 -> diff_prCalibTabDef(162), 
 Return value:  Size  Location     Type
                  1    wreg      void 
 Registers used:
		wreg, fsr2l, fsr2h, status,2, status,0, prodl, prodh, cstack
 Tracked objects:
		On entry : 
		On exit  : 
		Unchanged: 
 Data sizes:     COMRAM   BANK0   BANK1   BANK2   BANK3   BANK4   BANK5   BANK6   BANK7   BANK8   BANK9  BANK10  BANK11  BANK12  BANK13  BANK14  BANK15
      Params:         1       0       0       0       0       0       0       0       0       0       0       0       0       0       0       0       0
      Locals:         0       7       0       0       0       0       0       0       0       0       0       0       0       0       0       0       0
      Temps:          0       6       0       0       0       0       0       0       0       0       0       0       0       0       0       0       0
      Totals:         1      13       0       0       0       0       0       0       0       0       0       0       0       0       0       0       0
Total ram usage:       14 bytes
 Hardware stack levels used:    1
 Hardware stack levels required when called:    6
 This function calls:
		___int32_2_mflot32
 This function is called by:
		_key_process_set_down_long
		___set_short_diff_calib
 This function uses a non-reentrant model


 *************** function ___enter_menu_password *****************
 Defined at:
		line 103 in file "src/api/key_menu.c"
 Parameters:    Size  Location     Type
		None
 Auto vars:     Size  Location     Type
		None
 Return value:  Size  Location     Type
                  1    wreg      void 
 Registers used:
		wreg, status,2
 Tracked objects:
		On entry : 
		On exit  : 
		Unchanged: 
 Data sizes:     COMRAM   BANK0   BANK1   BANK2   BANK3   BANK4   BANK5   BANK6   BANK7   BANK8   BANK9  BANK10  BANK11  BANK12  BANK13  BANK14  BANK15
      Params:         0       0       0       0       0       0       0       0       0       0       0       0       0       0       0       0       0
      Locals:         0       0       0       0       0       0       0       0       0       0       0       0       0       0       0       0       0
      Temps:          0       0       0       0       0       0       0       0       0       0       0       0       0       0       0       0       0
      Totals:         0       0       0       0       0       0       0       0       0       0       0       0       0       0       0       0       0
Total ram usage:        0 bytes
 Hardware stack levels used:    1
 Hardware stack levels required when called:    4
 This function calls:
		Nothing
 This function is called by:
		_key_process_set
 This function uses a non-reentrant model


 *************** function _key_process_down *****************
 Defined at:
		line 403 in file "src/api/key_menu.c"
 Parameters:    Size  Location     Type
		None
 Auto vars:     Size  Location     Type
		None
 Return value:  Size  Location     Type
                  1    wreg      void 
 Registers used:
		wreg, fsr2l, fsr2h, status,2, status,0, cstack
 Tracked objects:
		On entry : 
		On exit  : 
		Unchanged: 
 Data sizes:     COMRAM   BANK0   BANK1   BANK2   BANK3   BANK4   BANK5   BANK6   BANK7   BANK8   BANK9  BANK10  BANK11  BANK12  BANK13  BANK14  BANK15
      Params:         0       0       0       0       0       0       0       0       0       0       0       0       0       0       0       0       0
      Locals:         0       0       0       0       0       0       0       0       0       0       0       0       0       0       0       0       0
      Temps:          0       0       0       0       0       0       0       0       0       0       0       0       0       0       0       0       0
      Totals:         0       0       0       0       0       0       0       0       0       0       0       0       0       0       0       0       0
Total ram usage:        0 bytes
 Hardware stack levels used:    1
 Hardware stack levels required when called:    6
 This function calls:
		___down_dpr_calib
		___down_home_adj
		___down_pose_size
		___down_pr_calib
		_key_shift_loc
 This function is called by:
		_key_process
 This function uses a non-reentrant model


 *************** function ___down_pr_calib *****************
 Defined at:
		line 380 in file "src/api/key_menu.c"
 Parameters:    Size  Location     Type
		None
 Auto vars:     Size  Location     Type
		None
 Return value:  Size  Location     Type
                  1    wreg      void 
 Registers used:
		wreg, fsr2l, fsr2h, status,2, status,0, cstack
 Tracked objects:
		On entry : 
		On exit  : 
		Unchanged: 
 Data sizes:     COMRAM   BANK0   BANK1   BANK2   BANK3   BANK4   BANK5   BANK6   BANK7   BANK8   BANK9  BANK10  BANK11  BANK12  BANK13  BANK14  BANK15
      Params:         0       0       0       0       0       0       0       0       0       0       0       0       0       0       0       0       0
      Locals:         0       0       0       0       0       0       0       0       0       0       0       0       0       0       0       0       0
      Temps:          0       0       0       0       0       0       0       0       0       0       0       0       0       0       0       0       0
      Totals:         0       0       0       0       0       0       0       0       0       0       0       0       0       0       0       0       0
Total ram usage:        0 bytes
 Hardware stack levels used:    1
 Hardware stack levels required when called:    5
 This function calls:
		_key_shift_loc
 This function is called by:
		_key_process_down
 This function uses a non-reentrant model


 *************** function ___down_pose_size *****************
 Defined at:
		line 363 in file "src/api/key_menu.c"
 Parameters:    Size  Location     Type
		None
 Auto vars:     Size  Location     Type
		None
 Return value:  Size  Location     Type
                  1    wreg      void 
 Registers used:
		wreg, fsr2l, fsr2h, status,2, status,0, cstack
 Tracked objects:
		On entry : 
		On exit  : 
		Unchanged: 
 Data sizes:     COMRAM   BANK0   BANK1   BANK2   BANK3   BANK4   BANK5   BANK6   BANK7   BANK8   BANK9  BANK10  BANK11  BANK12  BANK13  BANK14  BANK15
      Params:         0       0       0       0       0       0       0       0       0       0       0       0       0       0       0       0       0
      Locals:         0       0       0       0       0       0       0       0       0       0       0       0       0       0       0       0       0
      Temps:          0       0       0       0       0       0       0       0       0       0       0       0       0       0       0       0       0
      Totals:         0       0       0       0       0       0       0       0       0       0       0       0       0       0       0       0       0
Total ram usage:        0 bytes
 Hardware stack levels used:    1
 Hardware stack levels required when called:    5
 This function calls:
		_key_shift_loc
 This function is called by:
		_key_process_down
 This function uses a non-reentrant model


 *************** function ___down_home_adj *****************
 Defined at:
		line 387 in file "src/api/key_menu.c"
 Parameters:    Size  Location     Type
		None
 Auto vars:     Size  Location     Type
  t8              1   31[COMRAM] unsigned char 
 Return value:  Size  Location     Type
                  1    wreg      void 
 Registers used:
		wreg, status,2, status,0
 Tracked objects:
		On entry : 
		On exit  : 
		Unchanged: 
 Data sizes:     COMRAM   BANK0   BANK1   BANK2   BANK3   BANK4   BANK5   BANK6   BANK7   BANK8   BANK9  BANK10  BANK11  BANK12  BANK13  BANK14  BANK15
      Params:         0       0       0       0       0       0       0       0       0       0       0       0       0       0       0       0       0
      Locals:         1       0       0       0       0       0       0       0       0       0       0       0       0       0       0       0       0
      Temps:          0       0       0       0       0       0       0       0       0       0       0       0       0       0       0       0       0
      Totals:         1       0       0       0       0       0       0       0       0       0       0       0       0       0       0       0       0
Total ram usage:        1 bytes
 Hardware stack levels used:    1
 Hardware stack levels required when called:    4
 This function calls:
		Nothing
 This function is called by:
		_key_process_down
 This function uses a non-reentrant model


 *************** function ___down_dpr_calib *****************
 Defined at:
		line 373 in file "src/api/key_menu.c"
 Parameters:    Size  Location     Type
		None
 Auto vars:     Size  Location     Type
		None
 Return value:  Size  Location     Type
                  1    wreg      void 
 Registers used:
		wreg, fsr2l, fsr2h, status,2, status,0, cstack
 Tracked objects:
		On entry : 
		On exit  : 
		Unchanged: 
 Data sizes:     COMRAM   BANK0   BANK1   BANK2   BANK3   BANK4   BANK5   BANK6   BANK7   BANK8   BANK9  BANK10  BANK11  BANK12  BANK13  BANK14  BANK15
      Params:         0       0       0       0       0       0       0       0       0       0       0       0       0       0       0       0       0
      Locals:         0       0       0       0       0       0       0       0       0       0       0       0       0       0       0       0       0
      Temps:          0       0       0       0       0       0       0       0       0       0       0       0       0       0       0       0       0
      Totals:         0       0       0       0       0       0       0       0       0       0       0       0       0       0       0       0       0
Total ram usage:        0 bytes
 Hardware stack levels used:    1
 Hardware stack levels required when called:    5
 This function calls:
		_key_shift_loc
 This function is called by:
		_key_process_down
 This function uses a non-reentrant model


 *************** function _key_shift_loc *****************
 Defined at:
		line 46 in file "src/api/key_menu.c"
 Parameters:    Size  Location     Type
  loc             2    0[BANK0 ] PTR unsigned char 
		 -> adjLocation(1), 
  min             1    2[BANK0 ] unsigned char 
  max             1    3[BANK0 ] unsigned char 
 Auto vars:     Size  Location     Type
  t8              1   31[COMRAM] unsigned char 
 Return value:  Size  Location     Type
                  1    wreg      void 
 Registers used:
		wreg, fsr2l, fsr2h, status,2, status,0
 Tracked objects:
		On entry : 
		On exit  : 
		Unchanged: 
 Data sizes:     COMRAM   BANK0   BANK1   BANK2   BANK3   BANK4   BANK5   BANK6   BANK7   BANK8   BANK9  BANK10  BANK11  BANK12  BANK13  BANK14  BANK15
      Params:         0       4       0       0       0       0       0       0       0       0       0       0       0       0       0       0       0
      Locals:         1       0       0       0       0       0       0       0       0       0       0       0       0       0       0       0       0
      Temps:          0       0       0       0       0       0       0       0       0       0       0       0       0       0       0       0       0
      Totals:         1       4       0       0       0       0       0       0       0       0       0       0       0       0       0       0       0
Total ram usage:        5 bytes
 Hardware stack levels used:    1
 Hardware stack levels required when called:    4
 This function calls:
		Nothing
 This function is called by:
		___down_pose_size
		___down_dpr_calib
		___down_pr_calib
		_key_process_down
 This function uses a non-reentrant model


 *************** function _event_process_time_out *****************
 Defined at:
		line 30 in file "src/app/event.c"
 Parameters:    Size  Location     Type
		None
 Auto vars:     Size  Location     Type
		None
 Return value:  Size  Location     Type
                  1    wreg      char 
 Registers used:
		None
 Tracked objects:
		On entry : 
		On exit  : 
		Unchanged: 
 Data sizes:     COMRAM   BANK0   BANK1   BANK2   BANK3   BANK4   BANK5   BANK6   BANK7   BANK8   BANK9  BANK10  BANK11  BANK12  BANK13  BANK14  BANK15
      Params:         0       0       0       0       0       0       0       0       0       0       0       0       0       0       0       0       0
      Locals:         0       0       0       0       0       0       0       0       0       0       0       0       0       0       0       0       0
      Temps:          0       0       0       0       0       0       0       0       0       0       0       0       0       0       0       0       0
      Totals:         0       0       0       0       0       0       0       0       0       0       0       0       0       0       0       0       0
Total ram usage:        0 bytes
 Hardware stack levels used:    1
 Hardware stack levels required when called:    4
 This function calls:
		Nothing
 This function is called by:
		_main
		_event_process
 This function uses a non-reentrant model


 *************** function _event_process_ticker *****************
 Defined at:
		line 23 in file "src/app/event.c"
 Parameters:    Size  Location     Type
		None
 Auto vars:     Size  Location     Type
  ret             1    4[BANK1 ] unsigned char 
 Return value:  Size  Location     Type
                  1    wreg      char 
 Registers used:
		wreg, fsr1l, fsr1h, fsr2l, fsr2h, status,2, status,0, pclath, tosl, tblptrl, tblptrh, tblptru, prodl, prodh, cstack
 Tracked objects:
		On entry : 
		On exit  : 
		Unchanged: 
 Data sizes:     COMRAM   BANK0   BANK1   BANK2   BANK3   BANK4   BANK5   BANK6   BANK7   BANK8   BANK9  BANK10  BANK11  BANK12  BANK13  BANK14  BANK15
      Params:         0       0       0       0       0       0       0       0       0       0       0       0       0       0       0       0       0
      Locals:         0       0       1       0       0       0       0       0       0       0       0       0       0       0       0       0       0
      Temps:          0       0       0       0       0       0       0       0       0       0       0       0       0       0       0       0       0
      Totals:         0       0       1       0       0       0       0       0       0       0       0       0       0       0       0       0       0
Total ram usage:        1 bytes
 Hardware stack levels used:    1
 Hardware stack levels required when called:   12
 This function calls:
		_sample_call_in_ticker
 This function is called by:
		_main
		_event_process
 This function uses a non-reentrant model


 *************** function _sample_call_in_ticker *****************
 Defined at:
		line 148 in file "src/api/sample.c"
 Parameters:    Size  Location     Type
		None
 Auto vars:     Size  Location     Type
  ret             1  134[BANK0 ] unsigned char 
 Return value:  Size  Location     Type
                  1    wreg      void 
 Registers used:
		wreg, fsr1l, fsr1h, fsr2l, fsr2h, status,2, status,0, pclath, tosl, tblptrl, tblptrh, tblptru, prodl, prodh, cstack
 Tracked objects:
		On entry : 
		On exit  : 
		Unchanged: 
 Data sizes:     COMRAM   BANK0   BANK1   BANK2   BANK3   BANK4   BANK5   BANK6   BANK7   BANK8   BANK9  BANK10  BANK11  BANK12  BANK13  BANK14  BANK15
      Params:         0       0       0       0       0       0       0       0       0       0       0       0       0       0       0       0       0
      Locals:         0       1       0       0       0       0       0       0       0       0       0       0       0       0       0       0       0
      Temps:          0       0       0       0       0       0       0       0       0       0       0       0       0       0       0       0       0
      Totals:         0       1       0       0       0       0       0       0       0       0       0       0       0       0       0       0       0
Total ram usage:        1 bytes
 Hardware stack levels used:    1
 Hardware stack levels required when called:   11
 This function calls:
		_sample_call_cal_diff_pr
		_sample_call_cal_in_soc
		_sample_call_cal_pr
		_sample_diff_pr_chip_fast
		_sample_in_soc_adc_ch
		_sample_pr_chip_fast
 This function is called by:
		_event_process_ticker
 This function uses a non-reentrant model


 *************** function _sample_pr_chip_fast *****************
 Defined at:
		line 242 in file "src/api/sample.c"
 Parameters:    Size  Location     Type
		None
 Auto vars:     Size  Location     Type
  t16             2   43[BANK0 ] unsigned int 
  ret             1   42[BANK0 ] unsigned char 
 Return value:  Size  Location     Type
                  1    wreg      unsigned char 
 Registers used:
		wreg, fsr1l, fsr1h, fsr2l, fsr2h, status,2, status,0, pclath, tosl, prodl, prodh, cstack
 Tracked objects:
		On entry : 
		On exit  : 
		Unchanged: 
 Data sizes:     COMRAM   BANK0   BANK1   BANK2   BANK3   BANK4   BANK5   BANK6   BANK7   BANK8   BANK9  BANK10  BANK11  BANK12  BANK13  BANK14  BANK15
      Params:         0       0       0       0       0       0       0       0       0       0       0       0       0       0       0       0       0
      Locals:         0       3       0       0       0       0       0       0       0       0       0       0       0       0       0       0       0
      Temps:          0       0       0       0       0       0       0       0       0       0       0       0       0       0       0       0       0
      Totals:         0       3       0       0       0       0       0       0       0       0       0       0       0       0       0       0       0
Total ram usage:        3 bytes
 Hardware stack levels used:    1
 Hardware stack levels required when called:   10
 This function calls:
		___x_sample_fifo
		_ads1115_read_conversion
		_ads1115_set_mux
		_ads1115_start_conversion
 This function is called by:
		_sample_call_in_ticker
 This function uses a non-reentrant model


 *************** function _sample_in_soc_adc_ch *****************
 Defined at:
		line 283 in file "src/api/sample.c"
 Parameters:    Size  Location     Type
		None
 Auto vars:     Size  Location     Type
  t16             2   42[BANK0 ] unsigned int 
 Return value:  Size  Location     Type
                  1    wreg      unsigned char 
 Registers used:
		wreg, fsr1l, fsr1h, fsr2l, fsr2h, status,2, status,0, prodl, prodh, cstack
 Tracked objects:
		On entry : 
		On exit  : 
		Unchanged: 
 Data sizes:     COMRAM   BANK0   BANK1   BANK2   BANK3   BANK4   BANK5   BANK6   BANK7   BANK8   BANK9  BANK10  BANK11  BANK12  BANK13  BANK14  BANK15
      Params:         0       0       0       0       0       0       0       0       0       0       0       0       0       0       0       0       0
      Locals:         0       2       0       0       0       0       0       0       0       0       0       0       0       0       0       0       0
      Temps:          0       0       0       0       0       0       0       0       0       0       0       0       0       0       0       0       0
      Totals:         0       2       0       0       0       0       0       0       0       0       0       0       0       0       0       0       0
Total ram usage:        2 bytes
 Hardware stack levels used:    1
 Hardware stack levels required when called:    6
 This function calls:
		___x_sample_fifo
		_in_adc_init
		_in_adc_start_and_read
 This function is called by:
		_sample_call_in_ticker
 This function uses a non-reentrant model


 *************** function _in_adc_start_and_read *****************
 Defined at:
		line 21 in file "src/driver/in_adc.c"
 Parameters:    Size  Location     Type
  ch              1    wreg     unsigned char 
 Auto vars:     Size  Location     Type
  ch              1    6[BANK0 ] unsigned char 
  ret             2    7[BANK0 ] unsigned int 
 Return value:  Size  Location     Type
                  2    4[BANK0 ] unsigned int 
 Registers used:
		wreg, status,2, status,0, cstack
 Tracked objects:
		On entry : 
		On exit  : 
		Unchanged: 
 Data sizes:     COMRAM   BANK0   BANK1   BANK2   BANK3   BANK4   BANK5   BANK6   BANK7   BANK8   BANK9  BANK10  BANK11  BANK12  BANK13  BANK14  BANK15
      Params:         0       2       0       0       0       0       0       0       0       0       0       0       0       0       0       0       0
      Locals:         0       3       0       0       0       0       0       0       0       0       0       0       0       0       0       0       0
      Temps:          1       0       0       0       0       0       0       0       0       0       0       0       0       0       0       0       0
      Totals:         1       5       0       0       0       0       0       0       0       0       0       0       0       0       0       0       0
Total ram usage:        6 bytes
 Hardware stack levels used:    1
 Hardware stack levels required when called:    5
 This function calls:
		_delay_us
 This function is called by:
		_sample_in_soc_adc_ch
 This function uses a non-reentrant model


 *************** function _in_adc_init *****************
 Defined at:
		line 9 in file "src/driver/in_adc.c"
 Parameters:    Size  Location     Type
		None
 Auto vars:     Size  Location     Type
		None
 Return value:  Size  Location     Type
                  1    wreg      void 
 Registers used:
		wreg, status,2
 Tracked objects:
		On entry : 
		On exit  : 
		Unchanged: 
 Data sizes:     COMRAM   BANK0   BANK1   BANK2   BANK3   BANK4   BANK5   BANK6   BANK7   BANK8   BANK9  BANK10  BANK11  BANK12  BANK13  BANK14  BANK15
      Params:         0       0       0       0       0       0       0       0       0       0       0       0       0       0       0       0       0
      Locals:         0       0       0       0       0       0       0       0       0       0       0       0       0       0       0       0       0
      Temps:          0       0       0       0       0       0       0       0       0       0       0       0       0       0       0       0       0
      Totals:         0       0       0       0       0       0       0       0       0       0       0       0       0       0       0       0       0
Total ram usage:        0 bytes
 Hardware stack levels used:    1
 Hardware stack levels required when called:    4
 This function calls:
		Nothing
 This function is called by:
		_sample_in_soc_adc_ch
		_main
 This function uses a non-reentrant model


 *************** function _sample_diff_pr_chip_fast *****************
 Defined at:
		line 197 in file "src/api/sample.c"
 Parameters:    Size  Location     Type
		None
 Auto vars:     Size  Location     Type
  t16             2   49[BANK0 ] int 
 Return value:  Size  Location     Type
                  1    wreg      unsigned char 
 Registers used:
		wreg, fsr1l, fsr1h, fsr2l, fsr2h, status,2, status,0, pclath, tosl, prodl, prodh, cstack
 Tracked objects:
		On entry : 
		On exit  : 
		Unchanged: 
 Data sizes:     COMRAM   BANK0   BANK1   BANK2   BANK3   BANK4   BANK5   BANK6   BANK7   BANK8   BANK9  BANK10  BANK11  BANK12  BANK13  BANK14  BANK15
      Params:         0       0       0       0       0       0       0       0       0       0       0       0       0       0       0       0       0
      Locals:         0       2       0       0       0       0       0       0       0       0       0       0       0       0       0       0       0
      Temps:          0       0       0       0       0       0       0       0       0       0       0       0       0       0       0       0       0
      Totals:         0       2       0       0       0       0       0       0       0       0       0       0       0       0       0       0       0
Total ram usage:        2 bytes
 Hardware stack levels used:    1
 Hardware stack levels required when called:   10
 This function calls:
		___x_sample_fifo
		_ads1115_read_conversion
		_ads1115_set_data_rate
		_ads1115_set_mux
		_ads1115_set_pga
		_ads1115_start_conversion
		_sample_diff_pr_fliter
 This function is called by:
		_sample_call_in_ticker
 This function uses a non-reentrant model


 *************** function _sample_diff_pr_fliter *****************
 Defined at:
		line 80 in file "src/api/sample.c"
 Parameters:    Size  Location     Type
  xin             2   47[BANK0 ] PTR struct .
		 -> x_prDiffData(8), 
 Auto vars:     Size  Location     Type
		None
 Return value:  Size  Location     Type
                  1    wreg      unsigned char 
 Registers used:
		wreg, fsr2l, fsr2h, status,2, status,0, prodl, prodh, cstack
 Tracked objects:
		On entry : 
		On exit  : 
		Unchanged: 
 Data sizes:     COMRAM   BANK0   BANK1   BANK2   BANK3   BANK4   BANK5   BANK6   BANK7   BANK8   BANK9  BANK10  BANK11  BANK12  BANK13  BANK14  BANK15
      Params:         0       2       0       0       0       0       0       0       0       0       0       0       0       0       0       0       0
      Locals:         0       0       0       0       0       0       0       0       0       0       0       0       0       0       0       0       0
      Temps:          0       0       0       0       0       0       0       0       0       0       0       0       0       0       0       0       0
      Totals:         0       2       0       0       0       0       0       0       0       0       0       0       0       0       0       0       0
Total ram usage:        2 bytes
 Hardware stack levels used:    1
 Hardware stack levels required when called:    6
 This function calls:
		___x_sample_fliter
 This function is called by:
		_sample_diff_pr_chip_fast
 This function uses a non-reentrant model


 *************** function ___x_sample_fliter *****************
 Defined at:
		line 42 in file "src/api/sample.c"
 Parameters:    Size  Location     Type
  buf             2   26[BANK0 ] PTR int 
		 -> sampBufDiffPr_D23(8), sampBufDiffPr_D01(8), 
  len             1   28[BANK0 ] unsigned char 
  loop            1   29[BANK0 ] unsigned char 
 Auto vars:     Size  Location     Type
  t32             4   42[BANK0 ] long 
  min             2   40[BANK0 ] int 
  max             2   38[BANK0 ] int 
  i               1   46[BANK0 ] unsigned char 
  minLoc          1   37[BANK0 ] unsigned char 
  maxLoc          1   36[BANK0 ] unsigned char 
 Return value:  Size  Location     Type
                  2   26[BANK0 ] int 
 Registers used:
		wreg, fsr2l, fsr2h, status,2, status,0, prodl, prodh, cstack
 Tracked objects:
		On entry : 
		On exit  : 
		Unchanged: 
 Data sizes:     COMRAM   BANK0   BANK1   BANK2   BANK3   BANK4   BANK5   BANK6   BANK7   BANK8   BANK9  BANK10  BANK11  BANK12  BANK13  BANK14  BANK15
      Params:         0       4       0       0       0       0       0       0       0       0       0       0       0       0       0       0       0
      Locals:         0      11       0       0       0       0       0       0       0       0       0       0       0       0       0       0       0
      Temps:          0       6       0       0       0       0       0       0       0       0       0       0       0       0       0       0       0
      Totals:         0      21       0       0       0       0       0       0       0       0       0       0       0       0       0       0       0
Total ram usage:       21 bytes
 Hardware stack levels used:    1
 Hardware stack levels required when called:    5
 This function calls:
		___aldiv
 This function is called by:
		_sample_diff_pr_fliter
 This function uses a non-reentrant model


 *************** function _ads1115_start_conversion *****************
 Defined at:
		line 122 in file "src/driver/ads1115.c"
 Parameters:    Size  Location     Type
  pAds1115        2   11[BANK0 ] PTR struct .
		 -> ads1115Chip1(16), ads1115Chip0(16), NULL(0), 
 Auto vars:     Size  Location     Type
		None
 Return value:  Size  Location     Type
                  1    wreg      void 
 Registers used:
		wreg, fsr2l, fsr2h, status,2, status,0, pclath, tosl, cstack
 Tracked objects:
		On entry : 
		On exit  : 
		Unchanged: 
 Data sizes:     COMRAM   BANK0   BANK1   BANK2   BANK3   BANK4   BANK5   BANK6   BANK7   BANK8   BANK9  BANK10  BANK11  BANK12  BANK13  BANK14  BANK15
      Params:         0       2       0       0       0       0       0       0       0       0       0       0       0       0       0       0       0
      Locals:         0       0       0       0       0       0       0       0       0       0       0       0       0       0       0       0       0
      Temps:          0       0       0       0       0       0       0       0       0       0       0       0       0       0       0       0       0
      Totals:         0       2       0       0       0       0       0       0       0       0       0       0       0       0       0       0       0
Total ram usage:        2 bytes
 Hardware stack levels used:    1
 Hardware stack levels required when called:    9
 This function calls:
		_ads1115_write_reg
 This function is called by:
		_sample_diff_pr_chip_fast
		_sample_pr_chip_fast
 This function uses a non-reentrant model


 *************** function _ads1115_write_reg *****************
 Defined at:
		line 17 in file "src/driver/ads1115.c"
 Parameters:    Size  Location     Type
  pAds1115        2    6[BANK0 ] PTR struct .
		 -> ads1115Chip1(16), ads1115Chip0(16), NULL(0), 
  addr            1    8[BANK0 ] unsigned char 
  value           2    9[BANK0 ] unsigned int 
 Auto vars:     Size  Location     Type
		None
 Return value:  Size  Location     Type
                  1    wreg      void 
 Registers used:
		wreg, fsr2l, fsr2h, status,2, status,0, pclath, tosl, cstack
 Tracked objects:
		On entry : 
		On exit  : 
		Unchanged: 
 Data sizes:     COMRAM   BANK0   BANK1   BANK2   BANK3   BANK4   BANK5   BANK6   BANK7   BANK8   BANK9  BANK10  BANK11  BANK12  BANK13  BANK14  BANK15
      Params:         0       5       0       0       0       0       0       0       0       0       0       0       0       0       0       0       0
      Locals:         0       0       0       0       0       0       0       0       0       0       0       0       0       0       0       0       0
      Temps:          0       0       0       0       0       0       0       0       0       0       0       0       0       0       0       0       0
      Totals:         0       5       0       0       0       0       0       0       0       0       0       0       0       0       0       0       0
Total ram usage:        5 bytes
 Hardware stack levels used:    1
 Hardware stack levels required when called:    8
 This function calls:
		_iic_send_byte
		_iic_start
		_iic_stop
 This function is called by:
		_ads1115_start_conversion
		_ads1115_set_threshold_lo
		_ads1115_set_threshold_hi
 This function uses a non-reentrant model


 *************** function _ads1115_set_pga *****************
 Defined at:
		line 59 in file "src/driver/ads1115.c"
 Parameters:    Size  Location     Type
  pAds1115        2    0[BANK0 ] PTR struct .
		 -> ads1115Chip1(16), NULL(0), 
  pga             1    2[BANK0 ] enum E6987
 Auto vars:     Size  Location     Type
		None
 Return value:  Size  Location     Type
                  1    wreg      void 
 Registers used:
		wreg, fsr2l, fsr2h, status,2, status,0
 Tracked objects:
		On entry : 
		On exit  : 
		Unchanged: 
 Data sizes:     COMRAM   BANK0   BANK1   BANK2   BANK3   BANK4   BANK5   BANK6   BANK7   BANK8   BANK9  BANK10  BANK11  BANK12  BANK13  BANK14  BANK15
      Params:         0       3       0       0       0       0       0       0       0       0       0       0       0       0       0       0       0
      Locals:         0       0       0       0       0       0       0       0       0       0       0       0       0       0       0       0       0
      Temps:          1       0       0       0       0       0       0       0       0       0       0       0       0       0       0       0       0
      Totals:         1       3       0       0       0       0       0       0       0       0       0       0       0       0       0       0       0
Total ram usage:        4 bytes
 Hardware stack levels used:    1
 Hardware stack levels required when called:    4
 This function calls:
		Nothing
 This function is called by:
		_sample_diff_pr_chip_fast
 This function uses a non-reentrant model


 *************** function _ads1115_set_mux *****************
 Defined at:
		line 54 in file "src/driver/ads1115.c"
 Parameters:    Size  Location     Type
  pAds1115        2    0[BANK0 ] PTR struct .
		 -> ads1115Chip1(16), ads1115Chip0(16), NULL(0), 
  mux             1    2[BANK0 ] enum E6976
 Auto vars:     Size  Location     Type
		None
 Return value:  Size  Location     Type
                  1    wreg      void 
 Registers used:
		wreg, fsr2l, fsr2h, status,2, status,0
 Tracked objects:
		On entry : 
		On exit  : 
		Unchanged: 
 Data sizes:     COMRAM   BANK0   BANK1   BANK2   BANK3   BANK4   BANK5   BANK6   BANK7   BANK8   BANK9  BANK10  BANK11  BANK12  BANK13  BANK14  BANK15
      Params:         0       3       0       0       0       0       0       0       0       0       0       0       0       0       0       0       0
      Locals:         0       0       0       0       0       0       0       0       0       0       0       0       0       0       0       0       0
      Temps:          1       0       0       0       0       0       0       0       0       0       0       0       0       0       0       0       0
      Totals:         1       3       0       0       0       0       0       0       0       0       0       0       0       0       0       0       0
Total ram usage:        4 bytes
 Hardware stack levels used:    1
 Hardware stack levels required when called:    4
 This function calls:
		Nothing
 This function is called by:
		_sample_diff_pr_chip_fast
		_sample_pr_chip_fast
 This function uses a non-reentrant model


 *************** function _ads1115_set_data_rate *****************
 Defined at:
		line 69 in file "src/driver/ads1115.c"
 Parameters:    Size  Location     Type
  pAds1115        2    0[BANK0 ] PTR struct .
		 -> ads1115Chip1(16), NULL(0), 
  dr              1    2[BANK0 ] enum E7001
 Auto vars:     Size  Location     Type
		None
 Return value:  Size  Location     Type
                  1    wreg      void 
 Registers used:
		wreg, fsr2l, fsr2h, status,2, status,0
 Tracked objects:
		On entry : 
		On exit  : 
		Unchanged: 
 Data sizes:     COMRAM   BANK0   BANK1   BANK2   BANK3   BANK4   BANK5   BANK6   BANK7   BANK8   BANK9  BANK10  BANK11  BANK12  BANK13  BANK14  BANK15
      Params:         0       3       0       0       0       0       0       0       0       0       0       0       0       0       0       0       0
      Locals:         0       0       0       0       0       0       0       0       0       0       0       0       0       0       0       0       0
      Temps:          1       0       0       0       0       0       0       0       0       0       0       0       0       0       0       0       0
      Totals:         1       3       0       0       0       0       0       0       0       0       0       0       0       0       0       0       0
Total ram usage:        4 bytes
 Hardware stack levels used:    1
 Hardware stack levels required when called:    4
 This function calls:
		Nothing
 This function is called by:
		_sample_diff_pr_chip_fast
 This function uses a non-reentrant model


 *************** function _ads1115_read_conversion *****************
 Defined at:
		line 127 in file "src/driver/ads1115.c"
 Parameters:    Size  Location     Type
  pAds1115        2   14[BANK0 ] PTR struct .
		 -> ads1115Chip1(16), ads1115Chip0(16), NULL(0), 
 Auto vars:     Size  Location     Type
  result          2   17[BANK0 ] unsigned int 
 Return value:  Size  Location     Type
                  2   14[BANK0 ] unsigned int 
 Registers used:
		wreg, fsr2l, fsr2h, status,2, status,0, pclath, tosl, cstack
 Tracked objects:
		On entry : 
		On exit  : 
		Unchanged: 
 Data sizes:     COMRAM   BANK0   BANK1   BANK2   BANK3   BANK4   BANK5   BANK6   BANK7   BANK8   BANK9  BANK10  BANK11  BANK12  BANK13  BANK14  BANK15
      Params:         0       2       0       0       0       0       0       0       0       0       0       0       0       0       0       0       0
      Locals:         0       2       0       0       0       0       0       0       0       0       0       0       0       0       0       0       0
      Temps:          0       1       0       0       0       0       0       0       0       0       0       0       0       0       0       0       0
      Totals:         0       5       0       0       0       0       0       0       0       0       0       0       0       0       0       0       0
Total ram usage:        5 bytes
 Hardware stack levels used:    1
 Hardware stack levels required when called:    9
 This function calls:
		_ads1115_read_reg
 This function is called by:
		_sample_diff_pr_chip_fast
		_sample_pr_chip_fast
 This function uses a non-reentrant model


 *************** function _ads1115_read_reg *****************
 Defined at:
		line 29 in file "src/driver/ads1115.c"
 Parameters:    Size  Location     Type
  pAds1115        2    8[BANK0 ] PTR struct .
		 -> ads1115Chip1(16), ads1115Chip0(16), NULL(0), 
  addr            1   10[BANK0 ] unsigned char 
 Auto vars:     Size  Location     Type
  t16             2   12[BANK0 ] unsigned int 
 Return value:  Size  Location     Type
                  2    8[BANK0 ] unsigned int 
 Registers used:
		wreg, fsr2l, fsr2h, status,2, status,0, pclath, tosl, cstack
 Tracked objects:
		On entry : 
		On exit  : 
		Unchanged: 
 Data sizes:     COMRAM   BANK0   BANK1   BANK2   BANK3   BANK4   BANK5   BANK6   BANK7   BANK8   BANK9  BANK10  BANK11  BANK12  BANK13  BANK14  BANK15
      Params:         0       3       0       0       0       0       0       0       0       0       0       0       0       0       0       0       0
      Locals:         0       2       0       0       0       0       0       0       0       0       0       0       0       0       0       0       0
      Temps:          0       1       0       0       0       0       0       0       0       0       0       0       0       0       0       0       0
      Totals:         0       6       0       0       0       0       0       0       0       0       0       0       0       0       0       0       0
Total ram usage:        6 bytes
 Hardware stack levels used:    1
 Hardware stack levels required when called:    8
 This function calls:
		_iic_received_byte_if_ack
		_iic_send_byte
		_iic_start
		_iic_stop
 This function is called by:
		_ads1115_read_conversion
 This function uses a non-reentrant model


 *************** function ___x_sample_fifo *****************
 Defined at:
		line 67 in file "src/api/sample.c"
 Parameters:    Size  Location     Type
  buf             2   26[BANK0 ] PTR int 
		 -> sampBufRefInSoc(8), sampBufBatInSoc(8), sampBufExPr1InSoc(8), sampBufExPr0InSoc(8), 
		 -> sampBufPr(8), sampBufPt100ExB(8), sampBufPt100ExA(8), sampBufDiffPr_S1(8), 
		 -> sampBufDiffPr_D23(8), sampBufDiffPr_D01(8), 
  x               2   28[BANK0 ] int 
  len             1   30[BANK0 ] unsigned char 
 Auto vars:     Size  Location     Type
  ret             4   37[BANK0 ] long 
  i               1   41[BANK0 ] unsigned char 
 Return value:  Size  Location     Type
                  2   26[BANK0 ] int 
 Registers used:
		wreg, fsr1l, fsr1h, fsr2l, fsr2h, status,2, status,0, prodl, prodh, cstack
 Tracked objects:
		On entry : 
		On exit  : 
		Unchanged: 
 Data sizes:     COMRAM   BANK0   BANK1   BANK2   BANK3   BANK4   BANK5   BANK6   BANK7   BANK8   BANK9  BANK10  BANK11  BANK12  BANK13  BANK14  BANK15
      Params:         0       5       0       0       0       0       0       0       0       0       0       0       0       0       0       0       0
      Locals:         0       5       0       0       0       0       0       0       0       0       0       0       0       0       0       0       0
      Temps:          0       6       0       0       0       0       0       0       0       0       0       0       0       0       0       0       0
      Totals:         0      16       0       0       0       0       0       0       0       0       0       0       0       0       0       0       0
Total ram usage:       16 bytes
 Hardware stack levels used:    1
 Hardware stack levels required when called:    5
 This function calls:
		___aldiv
 This function is called by:
		_sample_diff_pr_chip_fast
		_sample_pr_chip_fast
		_sample_in_soc_adc_ch
 This function uses a non-reentrant model


 *************** function _event_process_rtc *****************
 Defined at:
		line 6 in file "src/app/event.c"
 Parameters:    Size  Location     Type
		None
 Auto vars:     Size  Location     Type
  ret             1    4[BANK1 ] unsigned char 
 Return value:  Size  Location     Type
                  1    wreg      char 
 Registers used:
		wreg, fsr0l, fsr0h, fsr1l, fsr1h, fsr2l, fsr2h, status,2, status,0, tblptrl, tblptrh, tblptru, prodl, prodh, cstack
 Tracked objects:
		On entry : 
		On exit  : 
		Unchanged: 
 Data sizes:     COMRAM   BANK0   BANK1   BANK2   BANK3   BANK4   BANK5   BANK6   BANK7   BANK8   BANK9  BANK10  BANK11  BANK12  BANK13  BANK14  BANK15
      Params:         0       0       0       0       0       0       0       0       0       0       0       0       0       0       0       0       0
      Locals:         0       0       1       0       0       0       0       0       0       0       0       0       0       0       0       0       0
      Temps:          0       0       0       0       0       0       0       0       0       0       0       0       0       0       0       0       0
      Totals:         0       0       1       0       0       0       0       0       0       0       0       0       0       0       0       0       0
Total ram usage:        1 bytes
 Hardware stack levels used:    1
 Hardware stack levels required when called:   13
 This function calls:
		_sample_function_enable_fi_in_rtc
		_ui_disp_menu
 This function is called by:
		_main
		_event_process
 This function uses a non-reentrant model


 *************** function _ui_disp_menu *****************
 Defined at:
		line 732 in file "src/api/ui.c"
 Parameters:    Size  Location     Type
		None
 Auto vars:     Size  Location     Type
		None
 Return value:  Size  Location     Type
                  1    wreg      void 
 Registers used:
		wreg, fsr0l, fsr0h, fsr2l, fsr2h, status,2, status,0, tblptrl, tblptrh, tblptru, prodl, prodh, cstack
 Tracked objects:
		On entry : 
		On exit  : 
		Unchanged: 
 Data sizes:     COMRAM   BANK0   BANK1   BANK2   BANK3   BANK4   BANK5   BANK6   BANK7   BANK8   BANK9  BANK10  BANK11  BANK12  BANK13  BANK14  BANK15
      Params:         0       0       0       0       0       0       0       0       0       0       0       0       0       0       0       0       0
      Locals:         0       0       0       0       0       0       0       0       0       0       0       0       0       0       0       0       0
      Temps:          0       0       0       0       0       0       0       0       0       0       0       0       0       0       0       0       0
      Totals:         0       0       0       0       0       0       0       0       0       0       0       0       0       0       0       0       0
Total ram usage:        0 bytes
 Hardware stack levels used:    1
 Hardware stack levels required when called:   12
 This function calls:
		_ui_disp_menu_bar_full_adj
		_ui_disp_menu_bzero_adj
		_ui_disp_menu_calib_diff_adj
		_ui_disp_menu_calib_pr_adj
		_ui_disp_menu_density_adj
		_ui_disp_menu_epr_calib_adj
		_ui_disp_menu_epr_ilp_scale_adj
		_ui_disp_menu_home
		_ui_disp_menu_poly_c_adj
		_ui_disp_menu_pose_size
		_ui_disp_menu_psw_adj
		_ui_disp_menu_warn_t_adj
		_ui_disp_menu_warn_v_adj
		_ui_disp_menu_work_mode_adj
 This function is called by:
		_key_process
		_event_process_rtc
 This function uses a non-reentrant model


 *************** function _ui_disp_menu_work_mode_adj *****************
 Defined at:
		line 716 in file "src/api/ui.c"
 Parameters:    Size  Location     Type
		None
 Auto vars:     Size  Location     Type
  buf            10   23[BANK0 ] unsigned char [10]
  p               2   33[BANK0 ] PTR unsigned char 
		 -> adjValue(4), 
 Return value:  Size  Location     Type
                  1    wreg      void 
 Registers used:
		wreg, fsr0l, fsr0h, fsr2l, fsr2h, status,2, status,0, tblptrl, tblptrh, tblptru, prodl, prodh, cstack
 Tracked objects:
		On entry : 
		On exit  : 
		Unchanged: 
 Data sizes:     COMRAM   BANK0   BANK1   BANK2   BANK3   BANK4   BANK5   BANK6   BANK7   BANK8   BANK9  BANK10  BANK11  BANK12  BANK13  BANK14  BANK15
      Params:         0       0       0       0       0       0       0       0       0       0       0       0       0       0       0       0       0
      Locals:         0      12       0       0       0       0       0       0       0       0       0       0       0       0       0       0       0
      Temps:          0       1       0       0       0       0       0       0       0       0       0       0       0       0       0       0       0
      Totals:         0      13       0       0       0       0       0       0       0       0       0       0       0       0       0       0       0
Total ram usage:       13 bytes
 Hardware stack levels used:    1
 Hardware stack levels required when called:    9
 This function calls:
		_lcd_disp_all
		_lcd_disp_logo
		_lcd_disp_refresh
		_lcd_show_string
		_m_mem_cpy
 This function is called by:
		_ui_disp_menu
 This function uses a non-reentrant model


 *************** function _ui_disp_menu_warn_v_adj *****************
 Defined at:
		line 636 in file "src/api/ui.c"
 Parameters:    Size  Location     Type
		None
 Auto vars:     Size  Location     Type
  buf             6   44[BANK0 ] unsigned char [6]
  t32             4    0        long 
  fps             2   50[BANK0 ] PTR struct .
		 -> stSysData(240), 
  t8              1   53[BANK0 ] unsigned char 
  type            1   52[BANK0 ] unsigned char 
 Return value:  Size  Location     Type
                  1    wreg      void 
 Registers used:
		wreg, fsr0l, fsr0h, fsr2l, fsr2h, status,2, status,0, tblptrl, tblptrh, tblptru, prodl, prodh, cstack
 Tracked objects:
		On entry : 
		On exit  : 
		Unchanged: 
 Data sizes:     COMRAM   BANK0   BANK1   BANK2   BANK3   BANK4   BANK5   BANK6   BANK7   BANK8   BANK9  BANK10  BANK11  BANK12  BANK13  BANK14  BANK15
      Params:         0       0       0       0       0       0       0       0       0       0       0       0       0       0       0       0       0
      Locals:         0      10       0       0       0       0       0       0       0       0       0       0       0       0       0       0       0
      Temps:          0       2       0       0       0       0       0       0       0       0       0       0       0       0       0       0       0
      Totals:         0      12       0       0       0       0       0       0       0       0       0       0       0       0       0       0       0
Total ram usage:       12 bytes
 Hardware stack levels used:    1
 Hardware stack levels required when called:   10
 This function calls:
		_lcd_disp_all
		_lcd_disp_logo
		_lcd_disp_unit_2nd_m
		_lcd_disp_unit_mpa
		_m_mem_cpy
		_ui_disp_adj_xfloat_pt
 This function is called by:
		_ui_disp_menu
 This function uses a non-reentrant model


 *************** function _ui_disp_menu_warn_t_adj *****************
 Defined at:
		line 607 in file "src/api/ui.c"
 Parameters:    Size  Location     Type
		None
 Auto vars:     Size  Location     Type
  buf             6   23[BANK0 ] unsigned char [6]
  p               2   30[BANK0 ] PTR unsigned char 
		 -> adjValue(4), 
  t8              1   29[BANK0 ] unsigned char 
 Return value:  Size  Location     Type
                  1    wreg      void 
 Registers used:
		wreg, fsr0l, fsr0h, fsr2l, fsr2h, status,2, status,0, tblptrl, tblptrh, tblptru, prodl, prodh, cstack
 Tracked objects:
		On entry : 
		On exit  : 
		Unchanged: 
 Data sizes:     COMRAM   BANK0   BANK1   BANK2   BANK3   BANK4   BANK5   BANK6   BANK7   BANK8   BANK9  BANK10  BANK11  BANK12  BANK13  BANK14  BANK15
      Params:         0       0       0       0       0       0       0       0       0       0       0       0       0       0       0       0       0
      Locals:         0       9       0       0       0       0       0       0       0       0       0       0       0       0       0       0       0
      Temps:          0       1       0       0       0       0       0       0       0       0       0       0       0       0       0       0       0
      Totals:         0      10       0       0       0       0       0       0       0       0       0       0       0       0       0       0       0
Total ram usage:       10 bytes
 Hardware stack levels used:    1
 Hardware stack levels required when called:    9
 This function calls:
		_lcd_disp_all
		_lcd_disp_logo
		_lcd_disp_refresh
		_lcd_show_string_l0
		_lcd_show_string_l1
		_m_mem_cpy
 This function is called by:
		_ui_disp_menu
 This function uses a non-reentrant model


 *************** function _ui_disp_menu_psw_adj *****************
 Defined at:
		line 353 in file "src/api/ui.c"
 Parameters:    Size  Location     Type
		None
 Auto vars:     Size  Location     Type
		None
 Return value:  Size  Location     Type
                  1    wreg      void 
 Registers used:
		wreg, fsr0l, fsr0h, fsr2l, fsr2h, status,2, status,0, tblptrl, tblptrh, tblptru, prodl, prodh, cstack
 Tracked objects:
		On entry : 
		On exit  : 
		Unchanged: 
 Data sizes:     COMRAM   BANK0   BANK1   BANK2   BANK3   BANK4   BANK5   BANK6   BANK7   BANK8   BANK9  BANK10  BANK11  BANK12  BANK13  BANK14  BANK15
      Params:         0       0       0       0       0       0       0       0       0       0       0       0       0       0       0       0       0
      Locals:         0       0       0       0       0       0       0       0       0       0       0       0       0       0       0       0       0
      Temps:          0       0       0       0       0       0       0       0       0       0       0       0       0       0       0       0       0
      Totals:         0       0       0       0       0       0       0       0       0       0       0       0       0       0       0       0       0
Total ram usage:        0 bytes
 Hardware stack levels used:    1
 Hardware stack levels required when called:   11
 This function calls:
		_lcd_disp_all
		_lcd_disp_logo
		_ui_disp_adj_xfixed_pt
 This function is called by:
		_ui_disp_menu
 This function uses a non-reentrant model


 *************** function _ui_disp_adj_xfixed_pt *****************
 Defined at:
		line 291 in file "src/api/ui.c"
 Parameters:    Size  Location     Type
  str             2   22[BANK0 ] PTR unsigned char 
		 -> STR_5(5), 
  x               2   24[BANK0 ] unsigned int 
  loc             1   26[BANK0 ] unsigned char 
 Auto vars:     Size  Location     Type
  buf            10   29[BANK0 ] unsigned char [10]
 Return value:  Size  Location     Type
                  1    wreg      void 
 Registers used:
		wreg, fsr0l, fsr0h, fsr2l, fsr2h, status,2, status,0, tblptrl, tblptrh, tblptru, prodl, prodh, cstack
 Tracked objects:
		On entry : 
		On exit  : 
		Unchanged: 
 Data sizes:     COMRAM   BANK0   BANK1   BANK2   BANK3   BANK4   BANK5   BANK6   BANK7   BANK8   BANK9  BANK10  BANK11  BANK12  BANK13  BANK14  BANK15
      Params:         0       5       0       0       0       0       0       0       0       0       0       0       0       0       0       0       0
      Locals:         0      10       0       0       0       0       0       0       0       0       0       0       0       0       0       0       0
      Temps:          0       2       0       0       0       0       0       0       0       0       0       0       0       0       0       0       0
      Totals:         0      17       0       0       0       0       0       0       0       0       0       0       0       0       0       0       0
Total ram usage:       17 bytes
 Hardware stack levels used:    1
 Hardware stack levels required when called:   10
 This function calls:
		___x_arrange_str
		_lcd_disp_refresh
		_lcd_show_string
		_m_int16_2_str_4
		_m_mem_cpy
		_ui_disp_clear_num_dp
 This function is called by:
		_ui_disp_menu_psw_adj
 This function uses a non-reentrant model


 *************** function _ui_disp_menu_pose_size *****************
 Defined at:
		line 518 in file "src/api/ui.c"
 Parameters:    Size  Location     Type
		None
 Auto vars:     Size  Location     Type
		None
 Return value:  Size  Location     Type
                  1    wreg      void 
 Registers used:
		wreg, fsr0l, fsr0h, fsr2l, fsr2h, status,2, status,0, tblptrl, tblptrh, tblptru, prodl, prodh, cstack
 Tracked objects:
		On entry : 
		On exit  : 
		Unchanged: 
 Data sizes:     COMRAM   BANK0   BANK1   BANK2   BANK3   BANK4   BANK5   BANK6   BANK7   BANK8   BANK9  BANK10  BANK11  BANK12  BANK13  BANK14  BANK15
      Params:         0       0       0       0       0       0       0       0       0       0       0       0       0       0       0       0       0
      Locals:         0       0       0       0       0       0       0       0       0       0       0       0       0       0       0       0       0
      Temps:          0       0       0       0       0       0       0       0       0       0       0       0       0       0       0       0       0
      Totals:         0       0       0       0       0       0       0       0       0       0       0       0       0       0       0       0       0
Total ram usage:        0 bytes
 Hardware stack levels used:    1
 Hardware stack levels required when called:   11
 This function calls:
		_ui_disp_menu_d_adj
		_ui_disp_menu_h_adj
		_ui_disp_menu_pos_adj
 This function is called by:
		_ui_disp_menu
 This function uses a non-reentrant model


 *************** function _ui_disp_menu_pos_adj *****************
 Defined at:
		line 481 in file "src/api/ui.c"
 Parameters:    Size  Location     Type
		None
 Auto vars:     Size  Location     Type
  buf             6   24[BANK0 ] unsigned char [6]
  p               2   22[BANK0 ] PTR unsigned char 
		 -> adjValue(4), 
 Return value:  Size  Location     Type
                  1    wreg      void 
 Registers used:
		wreg, fsr0l, fsr0h, fsr2l, fsr2h, status,2, status,0, tblptrl, tblptrh, tblptru, prodl, prodh, cstack
 Tracked objects:
		On entry : 
		On exit  : 
		Unchanged: 
 Data sizes:     COMRAM   BANK0   BANK1   BANK2   BANK3   BANK4   BANK5   BANK6   BANK7   BANK8   BANK9  BANK10  BANK11  BANK12  BANK13  BANK14  BANK15
      Params:         0       0       0       0       0       0       0       0       0       0       0       0       0       0       0       0       0
      Locals:         0       8       0       0       0       0       0       0       0       0       0       0       0       0       0       0       0
      Temps:          0       0       0       0       0       0       0       0       0       0       0       0       0       0       0       0       0
      Totals:         0       8       0       0       0       0       0       0       0       0       0       0       0       0       0       0       0
Total ram usage:        8 bytes
 Hardware stack levels used:    1
 Hardware stack levels required when called:    9
 This function calls:
		_lcd_disp_all
		_lcd_disp_logo
		_lcd_disp_refresh
		_lcd_show_string_l0
		_lcd_show_string_l1
		_m_mem_cpy
 This function is called by:
		_ui_disp_menu_pose_size
 This function uses a non-reentrant model


 *************** function _ui_disp_menu_h_adj *****************
 Defined at:
		line 499 in file "src/api/ui.c"
 Parameters:    Size  Location     Type
		None
 Auto vars:     Size  Location     Type
  fps             2   42[BANK0 ] PTR struct .
		 -> stSysData(240), 
 Return value:  Size  Location     Type
                  1    wreg      void 
 Registers used:
		wreg, fsr0l, fsr0h, fsr2l, fsr2h, status,2, status,0, tblptrl, tblptrh, tblptru, prodl, prodh, cstack
 Tracked objects:
		On entry : 
		On exit  : 
		Unchanged: 
 Data sizes:     COMRAM   BANK0   BANK1   BANK2   BANK3   BANK4   BANK5   BANK6   BANK7   BANK8   BANK9  BANK10  BANK11  BANK12  BANK13  BANK14  BANK15
      Params:         0       0       0       0       0       0       0       0       0       0       0       0       0       0       0       0       0
      Locals:         0       2       0       0       0       0       0       0       0       0       0       0       0       0       0       0       0
      Temps:          0       0       0       0       0       0       0       0       0       0       0       0       0       0       0       0       0
      Totals:         0       2       0       0       0       0       0       0       0       0       0       0       0       0       0       0       0
Total ram usage:        2 bytes
 Hardware stack levels used:    1
 Hardware stack levels required when called:   10
 This function calls:
		_lcd_disp_all
		_lcd_disp_logo
		_ui_disp_adj_xfloat_pt
 This function is called by:
		_ui_disp_menu_pose_size
 This function uses a non-reentrant model


 *************** function _ui_disp_menu_d_adj *****************
 Defined at:
		line 512 in file "src/api/ui.c"
 Parameters:    Size  Location     Type
		None
 Auto vars:     Size  Location     Type
		None
 Return value:  Size  Location     Type
                  1    wreg      void 
 Registers used:
		wreg, fsr0l, fsr0h, fsr2l, fsr2h, status,2, status,0, tblptrl, tblptrh, tblptru, prodl, prodh, cstack
 Tracked objects:
		On entry : 
		On exit  : 
		Unchanged: 
 Data sizes:     COMRAM   BANK0   BANK1   BANK2   BANK3   BANK4   BANK5   BANK6   BANK7   BANK8   BANK9  BANK10  BANK11  BANK12  BANK13  BANK14  BANK15
      Params:         0       0       0       0       0       0       0       0       0       0       0       0       0       0       0       0       0
      Locals:         0       0       0       0       0       0       0       0       0       0       0       0       0       0       0       0       0
      Temps:          0       0       0       0       0       0       0       0       0       0       0       0       0       0       0       0       0
      Totals:         0       0       0       0       0       0       0       0       0       0       0       0       0       0       0       0       0
Total ram usage:        0 bytes
 Hardware stack levels used:    1
 Hardware stack levels required when called:   10
 This function calls:
		_lcd_disp_all
		_lcd_disp_logo
		_ui_disp_adj_xfloat_pt
 This function is called by:
		_ui_disp_menu_pose_size
 This function uses a non-reentrant model


 *************** function _ui_disp_menu_poly_c_adj *****************
 Defined at:
		line 591 in file "src/api/ui.c"
 Parameters:    Size  Location     Type
		None
 Auto vars:     Size  Location     Type
  buf             6   40[BANK0 ] unsigned char [6]
  t8              1   46[BANK0 ] unsigned char 
 Return value:  Size  Location     Type
                  1    wreg      void 
 Registers used:
		wreg, fsr0l, fsr0h, fsr2l, fsr2h, status,2, status,0, tblptrl, tblptrh, tblptru, prodl, prodh, cstack
 Tracked objects:
		On entry : 
		On exit  : 
		Unchanged: 
 Data sizes:     COMRAM   BANK0   BANK1   BANK2   BANK3   BANK4   BANK5   BANK6   BANK7   BANK8   BANK9  BANK10  BANK11  BANK12  BANK13  BANK14  BANK15
      Params:         0       0       0       0       0       0       0       0       0       0       0       0       0       0       0       0       0
      Locals:         0       7       0       0       0       0       0       0       0       0       0       0       0       0       0       0       0
      Temps:          0       0       0       0       0       0       0       0       0       0       0       0       0       0       0       0       0
      Totals:         0       7       0       0       0       0       0       0       0       0       0       0       0       0       0       0       0
Total ram usage:        7 bytes
 Hardware stack levels used:    1
 Hardware stack levels required when called:   11
 This function calls:
		_lcd_disp_all
		_lcd_disp_logo
		_m_mem_cpy
		_ui_disp_adj_xfixed_pt_dp
 This function is called by:
		_ui_disp_menu
 This function uses a non-reentrant model


 *************** function _ui_disp_menu_home *****************
 Defined at:
		line 423 in file "src/api/ui.c"
 Parameters:    Size  Location     Type
		None
 Auto vars:     Size  Location     Type
  mf              4   40[BANK0 ] struct .
  t8              1   39[BANK0 ] unsigned char 
 Return value:  Size  Location     Type
                  1    wreg      void 
 Registers used:
		wreg, fsr0l, fsr0h, fsr2l, fsr2h, status,2, status,0, tblptrl, tblptrh, tblptru, prodl, prodh, cstack
 Tracked objects:
		On entry : 
		On exit  : 
		Unchanged: 
 Data sizes:     COMRAM   BANK0   BANK1   BANK2   BANK3   BANK4   BANK5   BANK6   BANK7   BANK8   BANK9  BANK10  BANK11  BANK12  BANK13  BANK14  BANK15
      Params:         0       0       0       0       0       0       0       0       0       0       0       0       0       0       0       0       0
      Locals:         0       5       0       0       0       0       0       0       0       0       0       0       0       0       0       0       0
      Temps:          0       0       0       0       0       0       0       0       0       0       0       0       0       0       0       0       0
      Totals:         0       5       0       0       0       0       0       0       0       0       0       0       0       0       0       0       0
Total ram usage:        5 bytes
 Hardware stack levels used:    1
 Hardware stack levels required when called:   10
 This function calls:
		___int32_2_mflot32
		_lcd_disp_all
		_lcd_disp_level
		_lcd_disp_logo
		_lcd_disp_refresh
		_lcd_disp_unit_1st_m
		_lcd_disp_unit_1st_m3
		_lcd_disp_unit_2nd_m
		_lcd_disp_unit_2nd_m3
		_lcd_disp_unit_mpa
		_lcd_disp_unit_t
		_lcd_disp_unit_temperature
		_ui_disp_xfloat_pt
 This function is called by:
		_ui_disp_menu
 This function uses a non-reentrant model


 *************** function _ui_disp_xfloat_pt *****************
 Defined at:
		line 326 in file "src/api/ui.c"
 Parameters:    Size  Location     Type
  xpf             2   22[BANK0 ] PTR struct .
		 -> ui_disp_menu_home@mf(4), ui_disp_menu_home_02@mf(4), ui_disp_menu_home_01@mf(4), ui_disp_menu_home_00@mf(4), 
  line            1   24[BANK0 ] unsigned char 
 Auto vars:     Size  Location     Type
  buf            10   26[BANK0 ] unsigned char [10]
  x               2   37[BANK0 ] unsigned int 
  t8              1   36[BANK0 ] unsigned char 
 Return value:  Size  Location     Type
                  1    wreg      void 
 Registers used:
		wreg, fsr0l, fsr0h, fsr2l, fsr2h, status,2, status,0, tblptrl, tblptrh, tblptru, prodl, prodh, cstack
 Tracked objects:
		On entry : 
		On exit  : 
		Unchanged: 
 Data sizes:     COMRAM   BANK0   BANK1   BANK2   BANK3   BANK4   BANK5   BANK6   BANK7   BANK8   BANK9  BANK10  BANK11  BANK12  BANK13  BANK14  BANK15
      Params:         0       3       0       0       0       0       0       0       0       0       0       0       0       0       0       0       0
      Locals:         0      13       0       0       0       0       0       0       0       0       0       0       0       0       0       0       0
      Temps:          0       1       0       0       0       0       0       0       0       0       0       0       0       0       0       0       0
      Totals:         0      17       0       0       0       0       0       0       0       0       0       0       0       0       0       0       0
Total ram usage:       17 bytes
 Hardware stack levels used:    1
 Hardware stack levels required when called:    9
 This function calls:
		___lwdiv
		_lcd_show_dp
		_lcd_show_string_l0
		_lcd_show_string_l1
		_m_int16_2_str_4
 This function is called by:
		_ui_disp_menu_home
		_ui_disp_menu_home_00
		_ui_disp_menu_home_01
		_ui_disp_menu_home_02
 This function uses a non-reentrant model


 *************** function _lcd_show_string_l1 *****************
 Defined at:
		line 549 in file "src/driver/lcd.c"
 Parameters:    Size  Location     Type
  str             2   19[BANK0 ] PTR unsigned char 
		 -> ui_disp_menu_warn_t_adj@buf(6), ui_disp_menu_pos_adj@buf(6), ui_disp_xfloat_pt@buf(10), ui_disp_start_cs600@buf(6), 
 Auto vars:     Size  Location     Type
  t8              1   21[BANK0 ] unsigned char 
 Return value:  Size  Location     Type
                  1    wreg      void 
 Registers used:
		wreg, fsr2l, fsr2h, status,2, status,0, tblptrl, tblptrh, tblptru, prodl, prodh, cstack
 Tracked objects:
		On entry : 
		On exit  : 
		Unchanged: 
 Data sizes:     COMRAM   BANK0   BANK1   BANK2   BANK3   BANK4   BANK5   BANK6   BANK7   BANK8   BANK9  BANK10  BANK11  BANK12  BANK13  BANK14  BANK15
      Params:         0       2       0       0       0       0       0       0       0       0       0       0       0       0       0       0       0
      Locals:         0       1       0       0       0       0       0       0       0       0       0       0       0       0       0       0       0
      Temps:          0       0       0       0       0       0       0       0       0       0       0       0       0       0       0       0       0
      Totals:         0       3       0       0       0       0       0       0       0       0       0       0       0       0       0       0       0
Total ram usage:        3 bytes
 Hardware stack levels used:    1
 Hardware stack levels required when called:    8
 This function calls:
		_lcd_show_chr
 This function is called by:
		_ui_disp_start_cs600
		_ui_disp_xfloat_pt
		_ui_disp_menu_pos_adj
		_ui_disp_menu_warn_t_adj
 This function uses a non-reentrant model


 *************** function _lcd_show_string_l0 *****************
 Defined at:
		line 539 in file "src/driver/lcd.c"
 Parameters:    Size  Location     Type
  str             2   19[BANK0 ] PTR unsigned char 
		 -> ui_disp_menu_warn_t_adj@buf(6), ui_disp_menu_pos_adj@buf(6), ui_disp_xfloat_pt@buf(10), STR_1(5), 
 Auto vars:     Size  Location     Type
  t8              1   21[BANK0 ] unsigned char 
 Return value:  Size  Location     Type
                  1    wreg      void 
 Registers used:
		wreg, fsr0l, fsr0h, fsr2l, fsr2h, status,2, status,0, tblptrl, tblptrh, tblptru, prodl, prodh, cstack
 Tracked objects:
		On entry : 
		On exit  : 
		Unchanged: 
 Data sizes:     COMRAM   BANK0   BANK1   BANK2   BANK3   BANK4   BANK5   BANK6   BANK7   BANK8   BANK9  BANK10  BANK11  BANK12  BANK13  BANK14  BANK15
      Params:         0       2       0       0       0       0       0       0       0       0       0       0       0       0       0       0       0
      Locals:         0       1       0       0       0       0       0       0       0       0       0       0       0       0       0       0       0
      Temps:          0       0       0       0       0       0       0       0       0       0       0       0       0       0       0       0       0
      Totals:         0       3       0       0       0       0       0       0       0       0       0       0       0       0       0       0       0
Total ram usage:        3 bytes
 Hardware stack levels used:    1
 Hardware stack levels required when called:    8
 This function calls:
		_lcd_show_chr
 This function is called by:
		_ui_disp_start_cs600
		_ui_disp_xfloat_pt
		_ui_disp_menu_pos_adj
		_ui_disp_menu_warn_t_adj
 This function uses a non-reentrant model


 *************** function ___lwdiv *****************
 Defined at:
		line 8 in file "C:\Program Files (x86)\Microchip\xc8\v1.41\sources\common\lwdiv.c"
 Parameters:    Size  Location     Type
  dividend        2    2[BANK0 ] unsigned int 
  divisor         2    4[BANK0 ] unsigned int 
 Auto vars:     Size  Location     Type
  quotient        2    7[BANK0 ] unsigned int 
  counter         1    6[BANK0 ] unsigned char 
 Return value:  Size  Location     Type
                  2    2[BANK0 ] unsigned int 
 Registers used:
		wreg, status,2, status,0
 Tracked objects:
		On entry : 
		On exit  : 
		Unchanged: 
 Data sizes:     COMRAM   BANK0   BANK1   BANK2   BANK3   BANK4   BANK5   BANK6   BANK7   BANK8   BANK9  BANK10  BANK11  BANK12  BANK13  BANK14  BANK15
      Params:         0       4       0       0       0       0       0       0       0       0       0       0       0       0       0       0       0
      Locals:         0       3       0       0       0       0       0       0       0       0       0       0       0       0       0       0       0
      Temps:          0       0       0       0       0       0       0       0       0       0       0       0       0       0       0       0       0
      Totals:         0       7       0       0       0       0       0       0       0       0       0       0       0       0       0       0       0
Total ram usage:        7 bytes
 Hardware stack levels used:    1
 Hardware stack levels required when called:    4
 This function calls:
		Nothing
 This function is called by:
		_key_adj_value_fixed
		_ui_disp_xfloat_pt
 This function uses a non-reentrant model


 *************** function _lcd_disp_unit_temperature *****************
 Defined at:
		line 422 in file "src/driver/lcd.c"
 Parameters:    Size  Location     Type
  show            1    wreg     unsigned char 
 Auto vars:     Size  Location     Type
  show            1   31[COMRAM] unsigned char 
 Return value:  Size  Location     Type
                  1    wreg      void 
 Registers used:
		wreg, fsr2l, fsr2h, status,2, status,0, prodl, prodh, cstack
 Tracked objects:
		On entry : 
		On exit  : 
		Unchanged: 
 Data sizes:     COMRAM   BANK0   BANK1   BANK2   BANK3   BANK4   BANK5   BANK6   BANK7   BANK8   BANK9  BANK10  BANK11  BANK12  BANK13  BANK14  BANK15
      Params:         0       0       0       0       0       0       0       0       0       0       0       0       0       0       0       0       0
      Locals:         1       0       0       0       0       0       0       0       0       0       0       0       0       0       0       0       0
      Temps:          0       0       0       0       0       0       0       0       0       0       0       0       0       0       0       0       0
      Totals:         1       0       0       0       0       0       0       0       0       0       0       0       0       0       0       0       0
Total ram usage:        1 bytes
 Hardware stack levels used:    1
 Hardware stack levels required when called:    6
 This function calls:
		_lcd_set_com_seg
 This function is called by:
		_ui_disp_menu_home
 This function uses a non-reentrant model


 *************** function _lcd_disp_unit_t *****************
 Defined at:
		line 387 in file "src/driver/lcd.c"
 Parameters:    Size  Location     Type
  show            1    wreg     unsigned char 
 Auto vars:     Size  Location     Type
  show            1   31[COMRAM] unsigned char 
 Return value:  Size  Location     Type
                  1    wreg      void 
 Registers used:
		wreg, fsr2l, fsr2h, status,2, status,0, prodl, prodh, cstack
 Tracked objects:
		On entry : 
		On exit  : 
		Unchanged: 
 Data sizes:     COMRAM   BANK0   BANK1   BANK2   BANK3   BANK4   BANK5   BANK6   BANK7   BANK8   BANK9  BANK10  BANK11  BANK12  BANK13  BANK14  BANK15
      Params:         0       0       0       0       0       0       0       0       0       0       0       0       0       0       0       0       0
      Locals:         1       0       0       0       0       0       0       0       0       0       0       0       0       0       0       0       0
      Temps:          0       0       0       0       0       0       0       0       0       0       0       0       0       0       0       0       0
      Totals:         1       0       0       0       0       0       0       0       0       0       0       0       0       0       0       0       0
Total ram usage:        1 bytes
 Hardware stack levels used:    1
 Hardware stack levels required when called:    6
 This function calls:
		_lcd_set_com_seg
 This function is called by:
		_ui_disp_menu_home
		_ui_disp_menu_home_02
 This function uses a non-reentrant model


 *************** function _lcd_disp_unit_mpa *****************
 Defined at:
		line 462 in file "src/driver/lcd.c"
 Parameters:    Size  Location     Type
  show            1    wreg     unsigned char 
 Auto vars:     Size  Location     Type
  show            1   31[COMRAM] unsigned char 
 Return value:  Size  Location     Type
                  1    wreg      void 
 Registers used:
		wreg, fsr2l, fsr2h, status,2, status,0, prodl, prodh, cstack
 Tracked objects:
		On entry : 
		On exit  : 
		Unchanged: 
 Data sizes:     COMRAM   BANK0   BANK1   BANK2   BANK3   BANK4   BANK5   BANK6   BANK7   BANK8   BANK9  BANK10  BANK11  BANK12  BANK13  BANK14  BANK15
      Params:         0       0       0       0       0       0       0       0       0       0       0       0       0       0       0       0       0
      Locals:         1       0       0       0       0       0       0       0       0       0       0       0       0       0       0       0       0
      Temps:          0       0       0       0       0       0       0       0       0       0       0       0       0       0       0       0       0
      Totals:         1       0       0       0       0       0       0       0       0       0       0       0       0       0       0       0       0
Total ram usage:        1 bytes
 Hardware stack levels used:    1
 Hardware stack levels required when called:    6
 This function calls:
		_lcd_set_com_seg
 This function is called by:
		_ui_disp_menu_home
		_ui_disp_menu_warn_v_adj
		_ui_disp_menu_home_00
		_ui_disp_menu_home_01
		_ui_disp_menu_home_02
 This function uses a non-reentrant model


 *************** function _lcd_disp_unit_2nd_m3 *****************
 Defined at:
		line 446 in file "src/driver/lcd.c"
 Parameters:    Size  Location     Type
  show            1    wreg     unsigned char 
 Auto vars:     Size  Location     Type
  show            1   31[COMRAM] unsigned char 
 Return value:  Size  Location     Type
                  1    wreg      void 
 Registers used:
		wreg, fsr2l, fsr2h, status,2, status,0, prodl, prodh, cstack
 Tracked objects:
		On entry : 
		On exit  : 
		Unchanged: 
 Data sizes:     COMRAM   BANK0   BANK1   BANK2   BANK3   BANK4   BANK5   BANK6   BANK7   BANK8   BANK9  BANK10  BANK11  BANK12  BANK13  BANK14  BANK15
      Params:         0       0       0       0       0       0       0       0       0       0       0       0       0       0       0       0       0
      Locals:         1       0       0       0       0       0       0       0       0       0       0       0       0       0       0       0       0
      Temps:          0       0       0       0       0       0       0       0       0       0       0       0       0       0       0       0       0
      Totals:         1       0       0       0       0       0       0       0       0       0       0       0       0       0       0       0       0
Total ram usage:        1 bytes
 Hardware stack levels used:    1
 Hardware stack levels required when called:    6
 This function calls:
		_lcd_set_com_seg
 This function is called by:
		_ui_disp_menu_home
 This function uses a non-reentrant model


 *************** function _lcd_disp_unit_2nd_m *****************
 Defined at:
		line 434 in file "src/driver/lcd.c"
 Parameters:    Size  Location     Type
  show            1    wreg     unsigned char 
 Auto vars:     Size  Location     Type
  show            1   31[COMRAM] unsigned char 
 Return value:  Size  Location     Type
                  1    wreg      void 
 Registers used:
		wreg, fsr2l, fsr2h, status,2, status,0, prodl, prodh, cstack
 Tracked objects:
		On entry : 
		On exit  : 
		Unchanged: 
 Data sizes:     COMRAM   BANK0   BANK1   BANK2   BANK3   BANK4   BANK5   BANK6   BANK7   BANK8   BANK9  BANK10  BANK11  BANK12  BANK13  BANK14  BANK15
      Params:         0       0       0       0       0       0       0       0       0       0       0       0       0       0       0       0       0
      Locals:         1       0       0       0       0       0       0       0       0       0       0       0       0       0       0       0       0
      Temps:          0       0       0       0       0       0       0       0       0       0       0       0       0       0       0       0       0
      Totals:         1       0       0       0       0       0       0       0       0       0       0       0       0       0       0       0       0
Total ram usage:        1 bytes
 Hardware stack levels used:    1
 Hardware stack levels required when called:    6
 This function calls:
		_lcd_set_com_seg
 This function is called by:
		_ui_disp_menu_home
		_ui_disp_menu_warn_v_adj
 This function uses a non-reentrant model


 *************** function _lcd_disp_unit_1st_m3 *****************
 Defined at:
		line 409 in file "src/driver/lcd.c"
 Parameters:    Size  Location     Type
  show            1    wreg     unsigned char 
 Auto vars:     Size  Location     Type
  show            1   31[COMRAM] unsigned char 
 Return value:  Size  Location     Type
                  1    wreg      void 
 Registers used:
		wreg, fsr2l, fsr2h, status,2, status,0, prodl, prodh, cstack
 Tracked objects:
		On entry : 
		On exit  : 
		Unchanged: 
 Data sizes:     COMRAM   BANK0   BANK1   BANK2   BANK3   BANK4   BANK5   BANK6   BANK7   BANK8   BANK9  BANK10  BANK11  BANK12  BANK13  BANK14  BANK15
      Params:         0       0       0       0       0       0       0       0       0       0       0       0       0       0       0       0       0
      Locals:         1       0       0       0       0       0       0       0       0       0       0       0       0       0       0       0       0
      Temps:          0       0       0       0       0       0       0       0       0       0       0       0       0       0       0       0       0
      Totals:         1       0       0       0       0       0       0       0       0       0       0       0       0       0       0       0       0
Total ram usage:        1 bytes
 Hardware stack levels used:    1
 Hardware stack levels required when called:    6
 This function calls:
		_lcd_set_com_seg
 This function is called by:
		_ui_disp_menu_home
		_ui_disp_menu_home_01
 This function uses a non-reentrant model


 *************** function _lcd_disp_unit_1st_m *****************
 Defined at:
		line 397 in file "src/driver/lcd.c"
 Parameters:    Size  Location     Type
  show            1    wreg     unsigned char 
 Auto vars:     Size  Location     Type
  show            1   31[COMRAM] unsigned char 
 Return value:  Size  Location     Type
                  1    wreg      void 
 Registers used:
		wreg, fsr2l, fsr2h, status,2, status,0, prodl, prodh, cstack
 Tracked objects:
		On entry : 
		On exit  : 
		Unchanged: 
 Data sizes:     COMRAM   BANK0   BANK1   BANK2   BANK3   BANK4   BANK5   BANK6   BANK7   BANK8   BANK9  BANK10  BANK11  BANK12  BANK13  BANK14  BANK15
      Params:         0       0       0       0       0       0       0       0       0       0       0       0       0       0       0       0       0
      Locals:         1       0       0       0       0       0       0       0       0       0       0       0       0       0       0       0       0
      Temps:          0       0       0       0       0       0       0       0       0       0       0       0       0       0       0       0       0
      Totals:         1       0       0       0       0       0       0       0       0       0       0       0       0       0       0       0       0
Total ram usage:        1 bytes
 Hardware stack levels used:    1
 Hardware stack levels required when called:    6
 This function calls:
		_lcd_set_com_seg
 This function is called by:
		_ui_disp_menu_home
		_ui_disp_menu_home_00
 This function uses a non-reentrant model


 *************** function _lcd_disp_level *****************
 Defined at:
		line 119 in file "src/driver/lcd.c"
 Parameters:    Size  Location     Type
  level           1    wreg     unsigned char 
 Auto vars:     Size  Location     Type
  level           1   18[BANK0 ] unsigned char 
  i               1   19[BANK0 ] unsigned char 
 Return value:  Size  Location     Type
                  1    wreg      void 
 Registers used:
		wreg, fsr2l, fsr2h, status,2, status,0, prodl, prodh, cstack
 Tracked objects:
		On entry : 
		On exit  : 
		Unchanged: 
 Data sizes:     COMRAM   BANK0   BANK1   BANK2   BANK3   BANK4   BANK5   BANK6   BANK7   BANK8   BANK9  BANK10  BANK11  BANK12  BANK13  BANK14  BANK15
      Params:         0       0       0       0       0       0       0       0       0       0       0       0       0       0       0       0       0
      Locals:         0       2       0       0       0       0       0       0       0       0       0       0       0       0       0       0       0
      Temps:          0       0       0       0       0       0       0       0       0       0       0       0       0       0       0       0       0
      Totals:         0       2       0       0       0       0       0       0       0       0       0       0       0       0       0       0       0
Total ram usage:        2 bytes
 Hardware stack levels used:    1
 Hardware stack levels required when called:    7
 This function calls:
		_lcd_disp_level_bar
 This function is called by:
		_ui_disp_menu_home
		_ui_disp_rtc_mm_ss
		_ui_disp_menu_home_00
		_ui_disp_menu_home_01
		_ui_disp_menu_home_02
 This function uses a non-reentrant model


 *************** function _lcd_disp_level_bar *****************
 Defined at:
		line 47 in file "src/driver/lcd.c"
 Parameters:    Size  Location     Type
  bar             1    wreg     unsigned char 
  show            1   31[COMRAM] unsigned char 
 Auto vars:     Size  Location     Type
  bar             1   17[BANK0 ] unsigned char 
  __bar           1   16[BANK0 ] unsigned char 
 Return value:  Size  Location     Type
                  1    wreg      void 
 Registers used:
		wreg, fsr2l, fsr2h, status,2, status,0, prodl, prodh, cstack
 Tracked objects:
		On entry : 
		On exit  : 
		Unchanged: 
 Data sizes:     COMRAM   BANK0   BANK1   BANK2   BANK3   BANK4   BANK5   BANK6   BANK7   BANK8   BANK9  BANK10  BANK11  BANK12  BANK13  BANK14  BANK15
      Params:         1       0       0       0       0       0       0       0       0       0       0       0       0       0       0       0       0
      Locals:         0       2       0       0       0       0       0       0       0       0       0       0       0       0       0       0       0
      Temps:          0       0       0       0       0       0       0       0       0       0       0       0       0       0       0       0       0
      Totals:         1       2       0       0       0       0       0       0       0       0       0       0       0       0       0       0       0
Total ram usage:        3 bytes
 Hardware stack levels used:    1
 Hardware stack levels required when called:    6
 This function calls:
		_lcd_set_com_seg
 This function is called by:
		_lcd_disp_level
		_lcd_disp_level_off
 This function uses a non-reentrant model


 *************** function ___int32_2_mflot32 *****************
 Defined at:
		line 58 in file "src/api/ui.c"
 Parameters:    Size  Location     Type
  x               4   13[BANK0 ] long 
 Auto vars:     Size  Location     Type
  mf              4   25[BANK0 ] struct .
  t32             4   21[BANK0 ] unsigned long 
 Return value:  Size  Location     Type
                  4   13[BANK0 ] long 
 Registers used:
		wreg, status,2, status,0, cstack
 Tracked objects:
		On entry : 
		On exit  : 
		Unchanged: 
 Data sizes:     COMRAM   BANK0   BANK1   BANK2   BANK3   BANK4   BANK5   BANK6   BANK7   BANK8   BANK9  BANK10  BANK11  BANK12  BANK13  BANK14  BANK15
      Params:         0       4       0       0       0       0       0       0       0       0       0       0       0       0       0       0       0
      Locals:         0       8       0       0       0       0       0       0       0       0       0       0       0       0       0       0       0
      Temps:          0       4       0       0       0       0       0       0       0       0       0       0       0       0       0       0       0
      Totals:         0      16       0       0       0       0       0       0       0       0       0       0       0       0       0       0       0
Total ram usage:       16 bytes
 Hardware stack levels used:    1
 Hardware stack levels required when called:    5
 This function calls:
		___lldiv
 This function is called by:
		___enter_menu_set_density
		___enter_menu_set_d
		___enter_menu_set_h
		___enter_menu_set_base_zero
		___enter_menu_calib_press_diff
		___enter_menu_calib_press
		___enter_menu_warn_value
		___enter_menu_epr_calib
		___enter_menu_epr_ilp_scale
		_ui_disp_menu_home
		_ui_disp_menu_home_00
		_ui_disp_menu_home_01
		_ui_disp_menu_home_02
 This function uses a non-reentrant model


 *************** function ___lldiv *****************
 Defined at:
		line 8 in file "C:\Program Files (x86)\Microchip\xc8\v1.41\sources\common\lldiv.c"
 Parameters:    Size  Location     Type
  dividend        4    0[BANK0 ] unsigned long 
  divisor         4    4[BANK0 ] unsigned long 
 Auto vars:     Size  Location     Type
  quotient        4    8[BANK0 ] unsigned long 
  counter         1   12[BANK0 ] unsigned char 
 Return value:  Size  Location     Type
                  4    0[BANK0 ] unsigned long 
 Registers used:
		wreg, status,2, status,0
 Tracked objects:
		On entry : 
		On exit  : 
		Unchanged: 
 Data sizes:     COMRAM   BANK0   BANK1   BANK2   BANK3   BANK4   BANK5   BANK6   BANK7   BANK8   BANK9  BANK10  BANK11  BANK12  BANK13  BANK14  BANK15
      Params:         0       8       0       0       0       0       0       0       0       0       0       0       0       0       0       0       0
      Locals:         0       5       0       0       0       0       0       0       0       0       0       0       0       0       0       0       0
      Temps:          0       0       0       0       0       0       0       0       0       0       0       0       0       0       0       0       0
      Totals:         0      13       0       0       0       0       0       0       0       0       0       0       0       0       0       0       0
Total ram usage:       13 bytes
 Hardware stack levels used:    1
 Hardware stack levels required when called:    4
 This function calls:
		Nothing
 This function is called by:
		___int32_2_mflot32
 This function uses a non-reentrant model


 *************** function _ui_disp_menu_epr_ilp_scale_adj *****************
 Defined at:
		line 694 in file "src/api/ui.c"
 Parameters:    Size  Location     Type
		None
 Auto vars:     Size  Location     Type
  buf             6   42[BANK0 ] unsigned char [6]
 Return value:  Size  Location     Type
                  1    wreg      void 
 Registers used:
		wreg, fsr0l, fsr0h, fsr2l, fsr2h, status,2, status,0, tblptrl, tblptrh, tblptru, prodl, prodh, cstack
 Tracked objects:
		On entry : 
		On exit  : 
		Unchanged: 
 Data sizes:     COMRAM   BANK0   BANK1   BANK2   BANK3   BANK4   BANK5   BANK6   BANK7   BANK8   BANK9  BANK10  BANK11  BANK12  BANK13  BANK14  BANK15
      Params:         0       0       0       0       0       0       0       0       0       0       0       0       0       0       0       0       0
      Locals:         0       6       0       0       0       0       0       0       0       0       0       0       0       0       0       0       0
      Temps:          0       0       0       0       0       0       0       0       0       0       0       0       0       0       0       0       0
      Totals:         0       6       0       0       0       0       0       0       0       0       0       0       0       0       0       0       0
Total ram usage:        6 bytes
 Hardware stack levels used:    1
 Hardware stack levels required when called:   10
 This function calls:
		_lcd_disp_all
		_lcd_disp_logo
		_m_mem_cpy
		_ui_disp_adj_xfloat_pt
 This function is called by:
		_ui_disp_menu
 This function uses a non-reentrant model


 *************** function _ui_disp_menu_epr_calib_adj *****************
 Defined at:
		line 679 in file "src/api/ui.c"
 Parameters:    Size  Location     Type
		None
 Auto vars:     Size  Location     Type
  buf             6   42[BANK0 ] unsigned char [6]
 Return value:  Size  Location     Type
                  1    wreg      void 
 Registers used:
		wreg, fsr0l, fsr0h, fsr2l, fsr2h, status,2, status,0, tblptrl, tblptrh, tblptru, prodl, prodh, cstack
 Tracked objects:
		On entry : 
		On exit  : 
		Unchanged: 
 Data sizes:     COMRAM   BANK0   BANK1   BANK2   BANK3   BANK4   BANK5   BANK6   BANK7   BANK8   BANK9  BANK10  BANK11  BANK12  BANK13  BANK14  BANK15
      Params:         0       0       0       0       0       0       0       0       0       0       0       0       0       0       0       0       0
      Locals:         0       6       0       0       0       0       0       0       0       0       0       0       0       0       0       0       0
      Temps:          0       0       0       0       0       0       0       0       0       0       0       0       0       0       0       0       0
      Totals:         0       6       0       0       0       0       0       0       0       0       0       0       0       0       0       0       0
Total ram usage:        6 bytes
 Hardware stack levels used:    1
 Hardware stack levels required when called:   10
 This function calls:
		_lcd_disp_all
		_lcd_disp_logo
		_m_mem_cpy
		_ui_disp_adj_xfloat_pt
 This function is called by:
		_ui_disp_menu
 This function uses a non-reentrant model


 *************** function _ui_disp_menu_density_adj *****************
 Defined at:
		line 474 in file "src/api/ui.c"
 Parameters:    Size  Location     Type
		None
 Auto vars:     Size  Location     Type
		None
 Return value:  Size  Location     Type
                  1    wreg      void 
 Registers used:
		wreg, fsr0l, fsr0h, fsr2l, fsr2h, status,2, status,0, tblptrl, tblptrh, tblptru, prodl, prodh, cstack
 Tracked objects:
		On entry : 
		On exit  : 
		Unchanged: 
 Data sizes:     COMRAM   BANK0   BANK1   BANK2   BANK3   BANK4   BANK5   BANK6   BANK7   BANK8   BANK9  BANK10  BANK11  BANK12  BANK13  BANK14  BANK15
      Params:         0       0       0       0       0       0       0       0       0       0       0       0       0       0       0       0       0
      Locals:         0       0       0       0       0       0       0       0       0       0       0       0       0       0       0       0       0
      Temps:          0       0       0       0       0       0       0       0       0       0       0       0       0       0       0       0       0
      Totals:         0       0       0       0       0       0       0       0       0       0       0       0       0       0       0       0       0
Total ram usage:        0 bytes
 Hardware stack levels used:    1
 Hardware stack levels required when called:   10
 This function calls:
		_lcd_disp_all
		_lcd_disp_logo
		_ui_disp_adj_xfloat_pt
 This function is called by:
		_ui_disp_menu
 This function uses a non-reentrant model


 *************** function _ui_disp_menu_calib_pr_adj *****************
 Defined at:
		line 563 in file "src/api/ui.c"
 Parameters:    Size  Location     Type
		None
 Auto vars:     Size  Location     Type
  buf            10   42[BANK0 ] unsigned char [10]
  t8              1   52[BANK0 ] unsigned char 
 Return value:  Size  Location     Type
                  1    wreg      void 
 Registers used:
		wreg, fsr0l, fsr0h, fsr2l, fsr2h, status,2, status,0, tblptrl, tblptrh, tblptru, prodl, prodh, cstack
 Tracked objects:
		On entry : 
		On exit  : 
		Unchanged: 
 Data sizes:     COMRAM   BANK0   BANK1   BANK2   BANK3   BANK4   BANK5   BANK6   BANK7   BANK8   BANK9  BANK10  BANK11  BANK12  BANK13  BANK14  BANK15
      Params:         0       0       0       0       0       0       0       0       0       0       0       0       0       0       0       0       0
      Locals:         0      11       0       0       0       0       0       0       0       0       0       0       0       0       0       0       0
      Temps:          0       0       0       0       0       0       0       0       0       0       0       0       0       0       0       0       0
      Totals:         0      11       0       0       0       0       0       0       0       0       0       0       0       0       0       0       0
Total ram usage:       11 bytes
 Hardware stack levels used:    1
 Hardware stack levels required when called:   10
 This function calls:
		___awmod
		___lbdiv
		_lcd_disp_all
		_lcd_disp_logo
		_lcd_disp_refresh
		_lcd_show_string
		_m_mem_cpy
		_ui_disp_adj_xfloat_pt
 This function is called by:
		_ui_disp_menu
 This function uses a non-reentrant model


 *************** function _ui_disp_menu_calib_diff_adj *****************
 Defined at:
		line 535 in file "src/api/ui.c"
 Parameters:    Size  Location     Type
		None
 Auto vars:     Size  Location     Type
  buf            10   42[BANK0 ] unsigned char [10]
  t8              1   52[BANK0 ] unsigned char 
 Return value:  Size  Location     Type
                  1    wreg      void 
 Registers used:
		wreg, fsr0l, fsr0h, fsr2l, fsr2h, status,2, status,0, tblptrl, tblptrh, tblptru, prodl, prodh, cstack
 Tracked objects:
		On entry : 
		On exit  : 
		Unchanged: 
 Data sizes:     COMRAM   BANK0   BANK1   BANK2   BANK3   BANK4   BANK5   BANK6   BANK7   BANK8   BANK9  BANK10  BANK11  BANK12  BANK13  BANK14  BANK15
      Params:         0       0       0       0       0       0       0       0       0       0       0       0       0       0       0       0       0
      Locals:         0      11       0       0       0       0       0       0       0       0       0       0       0       0       0       0       0
      Temps:          0       0       0       0       0       0       0       0       0       0       0       0       0       0       0       0       0
      Totals:         0      11       0       0       0       0       0       0       0       0       0       0       0       0       0       0       0
Total ram usage:       11 bytes
 Hardware stack levels used:    1
 Hardware stack levels required when called:   10
 This function calls:
		___awmod
		___lbdiv
		_lcd_disp_all
		_lcd_disp_logo
		_lcd_disp_refresh
		_lcd_show_string
		_m_mem_cpy
		_ui_disp_adj_xfloat_pt
 This function is called by:
		_ui_disp_menu
 This function uses a non-reentrant model


 *************** function ___lbdiv *****************
 Defined at:
		line 4 in file "C:\Program Files (x86)\Microchip\xc8\v1.41\sources\common\lbdiv.c"
 Parameters:    Size  Location     Type
  dividend        1    wreg     unsigned char 
  divisor         1   31[COMRAM] unsigned char 
 Auto vars:     Size  Location     Type
  dividend        1    0[BANK0 ] unsigned char 
  quotient        1    2[BANK0 ] unsigned char 
  counter         1    1[BANK0 ] unsigned char 
 Return value:  Size  Location     Type
                  1    wreg      unsigned char 
 Registers used:
		wreg, status,2, status,0
 Tracked objects:
		On entry : 
		On exit  : 
		Unchanged: 
 Data sizes:     COMRAM   BANK0   BANK1   BANK2   BANK3   BANK4   BANK5   BANK6   BANK7   BANK8   BANK9  BANK10  BANK11  BANK12  BANK13  BANK14  BANK15
      Params:         1       0       0       0       0       0       0       0       0       0       0       0       0       0       0       0       0
      Locals:         0       3       0       0       0       0       0       0       0       0       0       0       0       0       0       0       0
      Temps:          0       0       0       0       0       0       0       0       0       0       0       0       0       0       0       0       0
      Totals:         1       3       0       0       0       0       0       0       0       0       0       0       0       0       0       0       0
Total ram usage:        4 bytes
 Hardware stack levels used:    1
 Hardware stack levels required when called:    4
 This function calls:
		Nothing
 This function is called by:
		_ui_disp_menu_calib_diff_adj
		_ui_disp_menu_calib_pr_adj
		_lcd_disp_battary
		_lcd_disp_rf
		_lcd_disp_light
 This function uses a non-reentrant model


 *************** function _ui_disp_menu_bzero_adj *****************
 Defined at:
		line 528 in file "src/api/ui.c"
 Parameters:    Size  Location     Type
		None
 Auto vars:     Size  Location     Type
		None
 Return value:  Size  Location     Type
                  1    wreg      void 
 Registers used:
		wreg, fsr0l, fsr0h, fsr2l, fsr2h, status,2, status,0, tblptrl, tblptrh, tblptru, prodl, prodh, cstack
 Tracked objects:
		On entry : 
		On exit  : 
		Unchanged: 
 Data sizes:     COMRAM   BANK0   BANK1   BANK2   BANK3   BANK4   BANK5   BANK6   BANK7   BANK8   BANK9  BANK10  BANK11  BANK12  BANK13  BANK14  BANK15
      Params:         0       0       0       0       0       0       0       0       0       0       0       0       0       0       0       0       0
      Locals:         0       0       0       0       0       0       0       0       0       0       0       0       0       0       0       0       0
      Temps:          0       0       0       0       0       0       0       0       0       0       0       0       0       0       0       0       0
      Totals:         0       0       0       0       0       0       0       0       0       0       0       0       0       0       0       0       0
Total ram usage:        0 bytes
 Hardware stack levels used:    1
 Hardware stack levels required when called:   10
 This function calls:
		_lcd_disp_all
		_lcd_disp_logo
		_ui_disp_adj_xfloat_pt
 This function is called by:
		_ui_disp_menu
 This function uses a non-reentrant model


 *************** function _ui_disp_adj_xfloat_pt *****************
 Defined at:
		line 204 in file "src/api/ui.c"
 Parameters:    Size  Location     Type
  str             2   22[BANK0 ] PTR unsigned char 
		 -> ui_disp_menu_epr_ilp_scale_adj@buf(6), ui_disp_menu_epr_calib_adj@buf(6), ui_disp_menu_warn_v_adj@buf(6), ui_disp_menu_calib_pr_adj@buf(10), 
		 -> ui_disp_menu_calib_diff_adj@buf(10), STR_12(5), STR_11(5), STR_10(5), 
		 -> STR_9(5), STR_6(5), 
  xpf             2   24[BANK0 ] PTR struct .
		 -> m_floatAdj(4), 
  loc             1   26[BANK0 ] unsigned char 
 Auto vars:     Size  Location     Type
  buf            10   29[BANK0 ] unsigned char [10]
  x               2   39[BANK0 ] unsigned int 
  t8              1   41[BANK0 ] unsigned char 
 Return value:  Size  Location     Type
                  1    wreg      void 
 Registers used:
		wreg, fsr0l, fsr0h, fsr2l, fsr2h, status,2, status,0, tblptrl, tblptrh, tblptru, prodl, prodh, cstack
 Tracked objects:
		On entry : 
		On exit  : 
		Unchanged: 
 Data sizes:     COMRAM   BANK0   BANK1   BANK2   BANK3   BANK4   BANK5   BANK6   BANK7   BANK8   BANK9  BANK10  BANK11  BANK12  BANK13  BANK14  BANK15
      Params:         0       5       0       0       0       0       0       0       0       0       0       0       0       0       0       0       0
      Locals:         0      13       0       0       0       0       0       0       0       0       0       0       0       0       0       0       0
      Temps:          0       2       0       0       0       0       0       0       0       0       0       0       0       0       0       0       0
      Totals:         0      20       0       0       0       0       0       0       0       0       0       0       0       0       0       0       0
Total ram usage:       20 bytes
 Hardware stack levels used:    1
 Hardware stack levels required when called:    9
 This function calls:
		___x_arrange_str
		_lcd_disp_refresh
		_lcd_show_dp
		_lcd_show_string
		_m_int16_2_str_4
		_m_mem_cpy
 This function is called by:
		_ui_disp_menu_density_adj
		_ui_disp_menu_h_adj
		_ui_disp_menu_d_adj
		_ui_disp_menu_bzero_adj
		_ui_disp_menu_calib_diff_adj
		_ui_disp_menu_calib_pr_adj
		_ui_disp_menu_warn_v_adj
		_ui_disp_menu_epr_calib_adj
		_ui_disp_menu_epr_ilp_scale_adj
 This function uses a non-reentrant model


 *************** function _ui_disp_menu_bar_full_adj *****************
 Defined at:
		line 709 in file "src/api/ui.c"
 Parameters:    Size  Location     Type
		None
 Auto vars:     Size  Location     Type
		None
 Return value:  Size  Location     Type
                  1    wreg      void 
 Registers used:
		wreg, fsr0l, fsr0h, fsr2l, fsr2h, status,2, status,0, tblptrl, tblptrh, tblptru, prodl, prodh, cstack
 Tracked objects:
		On entry : 
		On exit  : 
		Unchanged: 
 Data sizes:     COMRAM   BANK0   BANK1   BANK2   BANK3   BANK4   BANK5   BANK6   BANK7   BANK8   BANK9  BANK10  BANK11  BANK12  BANK13  BANK14  BANK15
      Params:         0       0       0       0       0       0       0       0       0       0       0       0       0       0       0       0       0
      Locals:         0       0       0       0       0       0       0       0       0       0       0       0       0       0       0       0       0
      Temps:          0       0       0       0       0       0       0       0       0       0       0       0       0       0       0       0       0
      Totals:         0       0       0       0       0       0       0       0       0       0       0       0       0       0       0       0       0
Total ram usage:        0 bytes
 Hardware stack levels used:    1
 Hardware stack levels required when called:   11
 This function calls:
		_lcd_disp_all
		_lcd_disp_logo
		_ui_disp_adj_xfixed_pt_dp
 This function is called by:
		_ui_disp_menu
 This function uses a non-reentrant model


 *************** function _ui_disp_adj_xfixed_pt_dp *****************
 Defined at:
		line 308 in file "src/api/ui.c"
 Parameters:    Size  Location     Type
  str             2   22[BANK0 ] PTR unsigned char 
		 -> STR_31(5), ui_disp_menu_poly_c_adj@buf(6), 
  x               2   24[BANK0 ] unsigned int 
  loc             1   26[BANK0 ] unsigned char 
  dploc           1   27[BANK0 ] unsigned char 
 Auto vars:     Size  Location     Type
  buf            10   30[BANK0 ] unsigned char [10]
 Return value:  Size  Location     Type
                  1    wreg      void 
 Registers used:
		wreg, fsr0l, fsr0h, fsr2l, fsr2h, status,2, status,0, tblptrl, tblptrh, tblptru, prodl, prodh, cstack
 Tracked objects:
		On entry : 
		On exit  : 
		Unchanged: 
 Data sizes:     COMRAM   BANK0   BANK1   BANK2   BANK3   BANK4   BANK5   BANK6   BANK7   BANK8   BANK9  BANK10  BANK11  BANK12  BANK13  BANK14  BANK15
      Params:         0       6       0       0       0       0       0       0       0       0       0       0       0       0       0       0       0
      Locals:         0      10       0       0       0       0       0       0       0       0       0       0       0       0       0       0       0
      Temps:          0       2       0       0       0       0       0       0       0       0       0       0       0       0       0       0       0
      Totals:         0      18       0       0       0       0       0       0       0       0       0       0       0       0       0       0       0
Total ram usage:       18 bytes
 Hardware stack levels used:    1
 Hardware stack levels required when called:   10
 This function calls:
		___x_arrange_str
		_lcd_disp_refresh
		_lcd_show_dp
		_lcd_show_string
		_m_int16_2_str_4
		_m_mem_cpy
		_ui_disp_clear_num_dp
 This function is called by:
		_ui_disp_menu_poly_c_adj
		_ui_disp_menu_bar_full_adj
 This function uses a non-reentrant model


 *************** function _ui_disp_clear_num_dp *****************
 Defined at:
		line 193 in file "src/api/ui.c"
 Parameters:    Size  Location     Type
		None
 Auto vars:     Size  Location     Type
		None
 Return value:  Size  Location     Type
                  1    wreg      void 
 Registers used:
		wreg, fsr0l, fsr0h, fsr2l, fsr2h, status,2, status,0, tblptrl, tblptrh, tblptru, prodl, prodh, cstack
 Tracked objects:
		On entry : 
		On exit  : 
		Unchanged: 
 Data sizes:     COMRAM   BANK0   BANK1   BANK2   BANK3   BANK4   BANK5   BANK6   BANK7   BANK8   BANK9  BANK10  BANK11  BANK12  BANK13  BANK14  BANK15
      Params:         0       0       0       0       0       0       0       0       0       0       0       0       0       0       0       0       0
      Locals:         0       0       0       0       0       0       0       0       0       0       0       0       0       0       0       0       0
      Temps:          0       0       0       0       0       0       0       0       0       0       0       0       0       0       0       0       0
      Totals:         0       0       0       0       0       0       0       0       0       0       0       0       0       0       0       0       0
Total ram usage:        0 bytes
 Hardware stack levels used:    1
 Hardware stack levels required when called:    9
 This function calls:
		_lcd_show_dp
		_lcd_show_string
 This function is called by:
		_ui_disp_adj_xfixed_pt
		_ui_disp_adj_xfixed_pt_dp
		_ui_disp_menu_home_00
		_ui_disp_menu_home_01
		_ui_disp_menu_home_02
 This function uses a non-reentrant model


 *************** function _lcd_show_string *****************
 Defined at:
		line 559 in file "src/driver/lcd.c"
 Parameters:    Size  Location     Type
  str             2   19[BANK0 ] PTR unsigned char 
		 -> ui_disp_menu_work_mode_adj@buf(10), ui_disp_menu_calib_pr_adj@buf(10), ui_disp_menu_calib_diff_adj@buf(10), ui_disp_adj_xfixed_pt_dp@buf(10), 
		 -> ui_disp_adj_xfixed_pt@buf(10), ui_disp_adj_xfloat_pt@buf(10), STR_2(9), ui_disp_rtc_mm_ss@buf(10), 
 Auto vars:     Size  Location     Type
  t8              1   21[BANK0 ] unsigned char 
 Return value:  Size  Location     Type
                  1    wreg      void 
 Registers used:
		wreg, fsr0l, fsr0h, fsr2l, fsr2h, status,2, status,0, tblptrl, tblptrh, tblptru, prodl, prodh, cstack
 Tracked objects:
		On entry : 
		On exit  : 
		Unchanged: 
 Data sizes:     COMRAM   BANK0   BANK1   BANK2   BANK3   BANK4   BANK5   BANK6   BANK7   BANK8   BANK9  BANK10  BANK11  BANK12  BANK13  BANK14  BANK15
      Params:         0       2       0       0       0       0       0       0       0       0       0       0       0       0       0       0       0
      Locals:         0       1       0       0       0       0       0       0       0       0       0       0       0       0       0       0       0
      Temps:          0       0       0       0       0       0       0       0       0       0       0       0       0       0       0       0       0
      Totals:         0       3       0       0       0       0       0       0       0       0       0       0       0       0       0       0       0
Total ram usage:        3 bytes
 Hardware stack levels used:    1
 Hardware stack levels required when called:    8
 This function calls:
		_lcd_show_chr
 This function is called by:
		_ui_disp_clear_num_dp
		_ui_disp_adj_xfloat_pt
		_ui_disp_adj_xfixed_pt
		_ui_disp_adj_xfixed_pt_dp
		_ui_disp_menu_calib_diff_adj
		_ui_disp_menu_calib_pr_adj
		_ui_disp_menu_work_mode_adj
		_ui_disp_rtc_mm_ss
 This function uses a non-reentrant model


 *************** function _lcd_show_chr *****************
 Defined at:
		line 514 in file "src/driver/lcd.c"
 Parameters:    Size  Location     Type
  loc             1    wreg     unsigned char 
  chr             1   16[BANK0 ] unsigned char 
 Auto vars:     Size  Location     Type
  loc             1   17[BANK0 ] unsigned char 
  code            1   18[BANK0 ] unsigned char 
 Return value:  Size  Location     Type
                  1    wreg      void 
 Registers used:
		wreg, fsr2l, fsr2h, status,2, status,0, tblptrl, tblptrh, tblptru, prodl, prodh, cstack
 Tracked objects:
		On entry : 
		On exit  : 
		Unchanged: 
 Data sizes:     COMRAM   BANK0   BANK1   BANK2   BANK3   BANK4   BANK5   BANK6   BANK7   BANK8   BANK9  BANK10  BANK11  BANK12  BANK13  BANK14  BANK15
      Params:         0       1       0       0       0       0       0       0       0       0       0       0       0       0       0       0       0
      Locals:         0       2       0       0       0       0       0       0       0       0       0       0       0       0       0       0       0
      Temps:          0       0       0       0       0       0       0       0       0       0       0       0       0       0       0       0       0
      Totals:         0       3       0       0       0       0       0       0       0       0       0       0       0       0       0       0       0
Total ram usage:        3 bytes
 Hardware stack levels used:    1
 Hardware stack levels required when called:    7
 This function calls:
		_lcd_disp_chr_loc_0
		_lcd_disp_chr_loc_1
		_lcd_disp_chr_loc_2
		_lcd_disp_chr_loc_3
		_lcd_disp_chr_loc_4
		_lcd_disp_chr_loc_5
		_lcd_disp_chr_loc_6
		_lcd_disp_chr_loc_7
		_lcd_disp_get_code
 This function is called by:
		_lcd_show_string_l0
		_lcd_show_string_l1
		_lcd_show_string
		_lcd_show_chr_lc
 This function uses a non-reentrant model


 *************** function _lcd_disp_get_code *****************
 Defined at:
		line 476 in file "src/driver/lcd.c"
 Parameters:    Size  Location     Type
  chr             1    wreg     unsigned char 
 Auto vars:     Size  Location     Type
  chr             1    0[BANK0 ] unsigned char 
  i               1    2[BANK0 ] unsigned char 
  ret             1    1[BANK0 ] unsigned char 
 Return value:  Size  Location     Type
                  1    wreg      unsigned char 
 Registers used:
		wreg, status,2, status,0, tblptrl, tblptrh, tblptru, prodl, prodh
 Tracked objects:
		On entry : 
		On exit  : 
		Unchanged: 
 Data sizes:     COMRAM   BANK0   BANK1   BANK2   BANK3   BANK4   BANK5   BANK6   BANK7   BANK8   BANK9  BANK10  BANK11  BANK12  BANK13  BANK14  BANK15
      Params:         0       0       0       0       0       0       0       0       0       0       0       0       0       0       0       0       0
      Locals:         0       3       0       0       0       0       0       0       0       0       0       0       0       0       0       0       0
      Temps:          0       0       0       0       0       0       0       0       0       0       0       0       0       0       0       0       0
      Totals:         0       3       0       0       0       0       0       0       0       0       0       0       0       0       0       0       0
Total ram usage:        3 bytes
 Hardware stack levels used:    1
 Hardware stack levels required when called:    4
 This function calls:
		Nothing
 This function is called by:
		_lcd_show_chr
 This function uses a non-reentrant model


 *************** function _lcd_disp_chr_loc_7 *****************
 Defined at:
		line 354 in file "src/driver/lcd.c"
 Parameters:    Size  Location     Type
  code            1    wreg     unsigned char 
 Auto vars:     Size  Location     Type
  code            1   31[COMRAM] unsigned char 
 Return value:  Size  Location     Type
                  1    wreg      void 
 Registers used:
		wreg, fsr2l, fsr2h, status,2, status,0, prodl, prodh, cstack
 Tracked objects:
		On entry : 
		On exit  : 
		Unchanged: 
 Data sizes:     COMRAM   BANK0   BANK1   BANK2   BANK3   BANK4   BANK5   BANK6   BANK7   BANK8   BANK9  BANK10  BANK11  BANK12  BANK13  BANK14  BANK15
      Params:         0       0       0       0       0       0       0       0       0       0       0       0       0       0       0       0       0
      Locals:         1       0       0       0       0       0       0       0       0       0       0       0       0       0       0       0       0
      Temps:          0       0       0       0       0       0       0       0       0       0       0       0       0       0       0       0       0
      Totals:         1       0       0       0       0       0       0       0       0       0       0       0       0       0       0       0       0
Total ram usage:        1 bytes
 Hardware stack levels used:    1
 Hardware stack levels required when called:    6
 This function calls:
		_lcd_set_com_seg
 This function is called by:
		_lcd_show_chr
 This function uses a non-reentrant model


 *************** function _lcd_disp_chr_loc_6 *****************
 Defined at:
		line 335 in file "src/driver/lcd.c"
 Parameters:    Size  Location     Type
  code            1    wreg     unsigned char 
 Auto vars:     Size  Location     Type
  code            1   31[COMRAM] unsigned char 
 Return value:  Size  Location     Type
                  1    wreg      void 
 Registers used:
		wreg, fsr2l, fsr2h, status,2, status,0, prodl, prodh, cstack
 Tracked objects:
		On entry : 
		On exit  : 
		Unchanged: 
 Data sizes:     COMRAM   BANK0   BANK1   BANK2   BANK3   BANK4   BANK5   BANK6   BANK7   BANK8   BANK9  BANK10  BANK11  BANK12  BANK13  BANK14  BANK15
      Params:         0       0       0       0       0       0       0       0       0       0       0       0       0       0       0       0       0
      Locals:         1       0       0       0       0       0       0       0       0       0       0       0       0       0       0       0       0
      Temps:          0       0       0       0       0       0       0       0       0       0       0       0       0       0       0       0       0
      Totals:         1       0       0       0       0       0       0       0       0       0       0       0       0       0       0       0       0
Total ram usage:        1 bytes
 Hardware stack levels used:    1
 Hardware stack levels required when called:    6
 This function calls:
		_lcd_set_com_seg
 This function is called by:
		_lcd_show_chr
 This function uses a non-reentrant model


 *************** function _lcd_disp_chr_loc_5 *****************
 Defined at:
		line 316 in file "src/driver/lcd.c"
 Parameters:    Size  Location     Type
  code            1    wreg     unsigned char 
 Auto vars:     Size  Location     Type
  code            1   31[COMRAM] unsigned char 
 Return value:  Size  Location     Type
                  1    wreg      void 
 Registers used:
		wreg, fsr2l, fsr2h, status,2, status,0, prodl, prodh, cstack
 Tracked objects:
		On entry : 
		On exit  : 
		Unchanged: 
 Data sizes:     COMRAM   BANK0   BANK1   BANK2   BANK3   BANK4   BANK5   BANK6   BANK7   BANK8   BANK9  BANK10  BANK11  BANK12  BANK13  BANK14  BANK15
      Params:         0       0       0       0       0       0       0       0       0       0       0       0       0       0       0       0       0
      Locals:         1       0       0       0       0       0       0       0       0       0       0       0       0       0       0       0       0
      Temps:          0       0       0       0       0       0       0       0       0       0       0       0       0       0       0       0       0
      Totals:         1       0       0       0       0       0       0       0       0       0       0       0       0       0       0       0       0
Total ram usage:        1 bytes
 Hardware stack levels used:    1
 Hardware stack levels required when called:    6
 This function calls:
		_lcd_set_com_seg
 This function is called by:
		_lcd_show_chr
 This function uses a non-reentrant model


 *************** function _lcd_disp_chr_loc_4 *****************
 Defined at:
		line 297 in file "src/driver/lcd.c"
 Parameters:    Size  Location     Type
  code            1    wreg     unsigned char 
 Auto vars:     Size  Location     Type
  code            1   31[COMRAM] unsigned char 
 Return value:  Size  Location     Type
                  1    wreg      void 
 Registers used:
		wreg, fsr2l, fsr2h, status,2, status,0, prodl, prodh, cstack
 Tracked objects:
		On entry : 
		On exit  : 
		Unchanged: 
 Data sizes:     COMRAM   BANK0   BANK1   BANK2   BANK3   BANK4   BANK5   BANK6   BANK7   BANK8   BANK9  BANK10  BANK11  BANK12  BANK13  BANK14  BANK15
      Params:         0       0       0       0       0       0       0       0       0       0       0       0       0       0       0       0       0
      Locals:         1       0       0       0       0       0       0       0       0       0       0       0       0       0       0       0       0
      Temps:          0       0       0       0       0       0       0       0       0       0       0       0       0       0       0       0       0
      Totals:         1       0       0       0       0       0       0       0       0       0       0       0       0       0       0       0       0
Total ram usage:        1 bytes
 Hardware stack levels used:    1
 Hardware stack levels required when called:    6
 This function calls:
		_lcd_set_com_seg
 This function is called by:
		_lcd_show_chr
 This function uses a non-reentrant model


 *************** function _lcd_disp_chr_loc_3 *****************
 Defined at:
		line 285 in file "src/driver/lcd.c"
 Parameters:    Size  Location     Type
  code            1    wreg     unsigned char 
 Auto vars:     Size  Location     Type
  code            1   31[COMRAM] unsigned char 
 Return value:  Size  Location     Type
                  1    wreg      void 
 Registers used:
		wreg, fsr2l, fsr2h, status,2, status,0, prodl, prodh, cstack
 Tracked objects:
		On entry : 
		On exit  : 
		Unchanged: 
 Data sizes:     COMRAM   BANK0   BANK1   BANK2   BANK3   BANK4   BANK5   BANK6   BANK7   BANK8   BANK9  BANK10  BANK11  BANK12  BANK13  BANK14  BANK15
      Params:         0       0       0       0       0       0       0       0       0       0       0       0       0       0       0       0       0
      Locals:         1       0       0       0       0       0       0       0       0       0       0       0       0       0       0       0       0
      Temps:          0       0       0       0       0       0       0       0       0       0       0       0       0       0       0       0       0
      Totals:         1       0       0       0       0       0       0       0       0       0       0       0       0       0       0       0       0
Total ram usage:        1 bytes
 Hardware stack levels used:    1
 Hardware stack levels required when called:    6
 This function calls:
		_lcd_set_com_seg
 This function is called by:
		_lcd_show_chr
 This function uses a non-reentrant model


 *************** function _lcd_disp_chr_loc_2 *****************
 Defined at:
		line 266 in file "src/driver/lcd.c"
 Parameters:    Size  Location     Type
  code            1    wreg     unsigned char 
 Auto vars:     Size  Location     Type
  code            1   31[COMRAM] unsigned char 
 Return value:  Size  Location     Type
                  1    wreg      void 
 Registers used:
		wreg, fsr2l, fsr2h, status,2, status,0, prodl, prodh, cstack
 Tracked objects:
		On entry : 
		On exit  : 
		Unchanged: 
 Data sizes:     COMRAM   BANK0   BANK1   BANK2   BANK3   BANK4   BANK5   BANK6   BANK7   BANK8   BANK9  BANK10  BANK11  BANK12  BANK13  BANK14  BANK15
      Params:         0       0       0       0       0       0       0       0       0       0       0       0       0       0       0       0       0
      Locals:         1       0       0       0       0       0       0       0       0       0       0       0       0       0       0       0       0
      Temps:          0       0       0       0       0       0       0       0       0       0       0       0       0       0       0       0       0
      Totals:         1       0       0       0       0       0       0       0       0       0       0       0       0       0       0       0       0
Total ram usage:        1 bytes
 Hardware stack levels used:    1
 Hardware stack levels required when called:    6
 This function calls:
		_lcd_set_com_seg
 This function is called by:
		_lcd_show_chr
 This function uses a non-reentrant model


 *************** function _lcd_disp_chr_loc_1 *****************
 Defined at:
		line 247 in file "src/driver/lcd.c"
 Parameters:    Size  Location     Type
  code            1    wreg     unsigned char 
 Auto vars:     Size  Location     Type
  code            1   31[COMRAM] unsigned char 
 Return value:  Size  Location     Type
                  1    wreg      void 
 Registers used:
		wreg, fsr2l, fsr2h, status,2, status,0, prodl, prodh, cstack
 Tracked objects:
		On entry : 
		On exit  : 
		Unchanged: 
 Data sizes:     COMRAM   BANK0   BANK1   BANK2   BANK3   BANK4   BANK5   BANK6   BANK7   BANK8   BANK9  BANK10  BANK11  BANK12  BANK13  BANK14  BANK15
      Params:         0       0       0       0       0       0       0       0       0       0       0       0       0       0       0       0       0
      Locals:         1       0       0       0       0       0       0       0       0       0       0       0       0       0       0       0       0
      Temps:          0       0       0       0       0       0       0       0       0       0       0       0       0       0       0       0       0
      Totals:         1       0       0       0       0       0       0       0       0       0       0       0       0       0       0       0       0
Total ram usage:        1 bytes
 Hardware stack levels used:    1
 Hardware stack levels required when called:    6
 This function calls:
		_lcd_set_com_seg
 This function is called by:
		_lcd_show_chr
 This function uses a non-reentrant model


 *************** function _lcd_disp_chr_loc_0 *****************
 Defined at:
		line 227 in file "src/driver/lcd.c"
 Parameters:    Size  Location     Type
  code            1    wreg     unsigned char 
 Auto vars:     Size  Location     Type
  code            1   31[COMRAM] unsigned char 
 Return value:  Size  Location     Type
                  1    wreg      void 
 Registers used:
		wreg, fsr2l, fsr2h, status,2, status,0, prodl, prodh, cstack
 Tracked objects:
		On entry : 
		On exit  : 
		Unchanged: 
 Data sizes:     COMRAM   BANK0   BANK1   BANK2   BANK3   BANK4   BANK5   BANK6   BANK7   BANK8   BANK9  BANK10  BANK11  BANK12  BANK13  BANK14  BANK15
      Params:         0       0       0       0       0       0       0       0       0       0       0       0       0       0       0       0       0
      Locals:         1       0       0       0       0       0       0       0       0       0       0       0       0       0       0       0       0
      Temps:          0       0       0       0       0       0       0       0       0       0       0       0       0       0       0       0       0
      Totals:         1       0       0       0       0       0       0       0       0       0       0       0       0       0       0       0       0
Total ram usage:        1 bytes
 Hardware stack levels used:    1
 Hardware stack levels required when called:    6
 This function calls:
		_lcd_set_com_seg
 This function is called by:
		_lcd_show_chr
 This function uses a non-reentrant model


 *************** function _lcd_show_dp *****************
 Defined at:
		line 499 in file "src/driver/lcd.c"
 Parameters:    Size  Location     Type
  loc             1    wreg     unsigned char 
  show            1   16[BANK0 ] unsigned char 
 Auto vars:     Size  Location     Type
  loc             1   17[BANK0 ] unsigned char 
 Return value:  Size  Location     Type
                  1    wreg      void 
 Registers used:
		wreg, fsr2l, fsr2h, status,2, status,0, prodl, prodh, cstack
 Tracked objects:
		On entry : 
		On exit  : 
		Unchanged: 
 Data sizes:     COMRAM   BANK0   BANK1   BANK2   BANK3   BANK4   BANK5   BANK6   BANK7   BANK8   BANK9  BANK10  BANK11  BANK12  BANK13  BANK14  BANK15
      Params:         0       1       0       0       0       0       0       0       0       0       0       0       0       0       0       0       0
      Locals:         0       1       0       0       0       0       0       0       0       0       0       0       0       0       0       0       0
      Temps:          0       0       0       0       0       0       0       0       0       0       0       0       0       0       0       0       0
      Totals:         0       2       0       0       0       0       0       0       0       0       0       0       0       0       0       0       0
Total ram usage:        2 bytes
 Hardware stack levels used:    1
 Hardware stack levels required when called:    7
 This function calls:
		_lcd_disp_dp_loc_0
		_lcd_disp_dp_loc_1
		_lcd_disp_dp_loc_2
		_lcd_disp_dp_loc_4
		_lcd_disp_dp_loc_5
		_lcd_disp_dp_loc_6
 This function is called by:
		_ui_disp_clear_num_dp
		_ui_disp_adj_xfloat_pt
		_ui_disp_adj_xfixed_pt_dp
		_ui_disp_xfloat_pt
		_ui_disp_rtc_mm_ss
 This function uses a non-reentrant model


 *************** function _lcd_disp_dp_loc_6 *****************
 Defined at:
		line 346 in file "src/driver/lcd.c"
 Parameters:    Size  Location     Type
  dp              1    wreg     unsigned char 
 Auto vars:     Size  Location     Type
  dp              1   31[COMRAM] unsigned char 
 Return value:  Size  Location     Type
                  1    wreg      void 
 Registers used:
		wreg, fsr2l, fsr2h, status,2, status,0, prodl, prodh, cstack
 Tracked objects:
		On entry : 
		On exit  : 
		Unchanged: 
 Data sizes:     COMRAM   BANK0   BANK1   BANK2   BANK3   BANK4   BANK5   BANK6   BANK7   BANK8   BANK9  BANK10  BANK11  BANK12  BANK13  BANK14  BANK15
      Params:         0       0       0       0       0       0       0       0       0       0       0       0       0       0       0       0       0
      Locals:         1       0       0       0       0       0       0       0       0       0       0       0       0       0       0       0       0
      Temps:          0       0       0       0       0       0       0       0       0       0       0       0       0       0       0       0       0
      Totals:         1       0       0       0       0       0       0       0       0       0       0       0       0       0       0       0       0
Total ram usage:        1 bytes
 Hardware stack levels used:    1
 Hardware stack levels required when called:    6
 This function calls:
		_lcd_set_com_seg
 This function is called by:
		_lcd_show_dp
		_lcd_clear_all_dp
 This function uses a non-reentrant model


 *************** function _lcd_disp_dp_loc_5 *****************
 Defined at:
		line 327 in file "src/driver/lcd.c"
 Parameters:    Size  Location     Type
  dp              1    wreg     unsigned char 
 Auto vars:     Size  Location     Type
  dp              1   31[COMRAM] unsigned char 
 Return value:  Size  Location     Type
                  1    wreg      void 
 Registers used:
		wreg, fsr2l, fsr2h, status,2, status,0, prodl, prodh, cstack
 Tracked objects:
		On entry : 
		On exit  : 
		Unchanged: 
 Data sizes:     COMRAM   BANK0   BANK1   BANK2   BANK3   BANK4   BANK5   BANK6   BANK7   BANK8   BANK9  BANK10  BANK11  BANK12  BANK13  BANK14  BANK15
      Params:         0       0       0       0       0       0       0       0       0       0       0       0       0       0       0       0       0
      Locals:         1       0       0       0       0       0       0       0       0       0       0       0       0       0       0       0       0
      Temps:          0       0       0       0       0       0       0       0       0       0       0       0       0       0       0       0       0
      Totals:         1       0       0       0       0       0       0       0       0       0       0       0       0       0       0       0       0
Total ram usage:        1 bytes
 Hardware stack levels used:    1
 Hardware stack levels required when called:    6
 This function calls:
		_lcd_set_com_seg
 This function is called by:
		_lcd_show_dp
		_lcd_clear_all_dp
 This function uses a non-reentrant model


 *************** function _lcd_disp_dp_loc_4 *****************
 Defined at:
		line 308 in file "src/driver/lcd.c"
 Parameters:    Size  Location     Type
  dp              1    wreg     unsigned char 
 Auto vars:     Size  Location     Type
  dp              1   31[COMRAM] unsigned char 
 Return value:  Size  Location     Type
                  1    wreg      void 
 Registers used:
		wreg, fsr2l, fsr2h, status,2, status,0, prodl, prodh, cstack
 Tracked objects:
		On entry : 
		On exit  : 
		Unchanged: 
 Data sizes:     COMRAM   BANK0   BANK1   BANK2   BANK3   BANK4   BANK5   BANK6   BANK7   BANK8   BANK9  BANK10  BANK11  BANK12  BANK13  BANK14  BANK15
      Params:         0       0       0       0       0       0       0       0       0       0       0       0       0       0       0       0       0
      Locals:         1       0       0       0       0       0       0       0       0       0       0       0       0       0       0       0       0
      Temps:          0       0       0       0       0       0       0       0       0       0       0       0       0       0       0       0       0
      Totals:         1       0       0       0       0       0       0       0       0       0       0       0       0       0       0       0       0
Total ram usage:        1 bytes
 Hardware stack levels used:    1
 Hardware stack levels required when called:    6
 This function calls:
		_lcd_set_com_seg
 This function is called by:
		_lcd_show_dp
		_lcd_clear_all_dp
 This function uses a non-reentrant model


 *************** function _lcd_disp_dp_loc_2 *****************
 Defined at:
		line 277 in file "src/driver/lcd.c"
 Parameters:    Size  Location     Type
  dp              1    wreg     unsigned char 
 Auto vars:     Size  Location     Type
  dp              1   31[COMRAM] unsigned char 
 Return value:  Size  Location     Type
                  1    wreg      void 
 Registers used:
		wreg, fsr2l, fsr2h, status,2, status,0, prodl, prodh, cstack
 Tracked objects:
		On entry : 
		On exit  : 
		Unchanged: 
 Data sizes:     COMRAM   BANK0   BANK1   BANK2   BANK3   BANK4   BANK5   BANK6   BANK7   BANK8   BANK9  BANK10  BANK11  BANK12  BANK13  BANK14  BANK15
      Params:         0       0       0       0       0       0       0       0       0       0       0       0       0       0       0       0       0
      Locals:         1       0       0       0       0       0       0       0       0       0       0       0       0       0       0       0       0
      Temps:          0       0       0       0       0       0       0       0       0       0       0       0       0       0       0       0       0
      Totals:         1       0       0       0       0       0       0       0       0       0       0       0       0       0       0       0       0
Total ram usage:        1 bytes
 Hardware stack levels used:    1
 Hardware stack levels required when called:    6
 This function calls:
		_lcd_set_com_seg
 This function is called by:
		_lcd_show_dp
		_lcd_clear_all_dp
 This function uses a non-reentrant model


 *************** function _lcd_disp_dp_loc_1 *****************
 Defined at:
		line 258 in file "src/driver/lcd.c"
 Parameters:    Size  Location     Type
  dp              1    wreg     unsigned char 
 Auto vars:     Size  Location     Type
  dp              1   31[COMRAM] unsigned char 
 Return value:  Size  Location     Type
                  1    wreg      void 
 Registers used:
		wreg, fsr2l, fsr2h, status,2, status,0, prodl, prodh, cstack
 Tracked objects:
		On entry : 
		On exit  : 
		Unchanged: 
 Data sizes:     COMRAM   BANK0   BANK1   BANK2   BANK3   BANK4   BANK5   BANK6   BANK7   BANK8   BANK9  BANK10  BANK11  BANK12  BANK13  BANK14  BANK15
      Params:         0       0       0       0       0       0       0       0       0       0       0       0       0       0       0       0       0
      Locals:         1       0       0       0       0       0       0       0       0       0       0       0       0       0       0       0       0
      Temps:          0       0       0       0       0       0       0       0       0       0       0       0       0       0       0       0       0
      Totals:         1       0       0       0       0       0       0       0       0       0       0       0       0       0       0       0       0
Total ram usage:        1 bytes
 Hardware stack levels used:    1
 Hardware stack levels required when called:    6
 This function calls:
		_lcd_set_com_seg
 This function is called by:
		_lcd_show_dp
		_lcd_clear_all_dp
 This function uses a non-reentrant model


 *************** function _lcd_disp_dp_loc_0 *****************
 Defined at:
		line 239 in file "src/driver/lcd.c"
 Parameters:    Size  Location     Type
  dp              1    wreg     unsigned char 
 Auto vars:     Size  Location     Type
  dp              1   31[COMRAM] unsigned char 
 Return value:  Size  Location     Type
                  1    wreg      void 
 Registers used:
		wreg, fsr2l, fsr2h, status,2, status,0, prodl, prodh, cstack
 Tracked objects:
		On entry : 
		On exit  : 
		Unchanged: 
 Data sizes:     COMRAM   BANK0   BANK1   BANK2   BANK3   BANK4   BANK5   BANK6   BANK7   BANK8   BANK9  BANK10  BANK11  BANK12  BANK13  BANK14  BANK15
      Params:         0       0       0       0       0       0       0       0       0       0       0       0       0       0       0       0       0
      Locals:         1       0       0       0       0       0       0       0       0       0       0       0       0       0       0       0       0
      Temps:          0       0       0       0       0       0       0       0       0       0       0       0       0       0       0       0       0
      Totals:         1       0       0       0       0       0       0       0       0       0       0       0       0       0       0       0       0
Total ram usage:        1 bytes
 Hardware stack levels used:    1
 Hardware stack levels required when called:    6
 This function calls:
		_lcd_set_com_seg
 This function is called by:
		_lcd_show_dp
		_lcd_clear_all_dp
 This function uses a non-reentrant model


 *************** function _m_mem_cpy *****************
 Defined at:
		line 51 in file "src/depend/m_string.c"
 Parameters:    Size  Location     Type
  d               2    0[BANK0 ] PTR unsigned char 
		 -> ui_disp_menu_work_mode_adj@buf(10), ui_disp_menu_epr_ilp_scale_adj@buf(6), ui_disp_menu_epr_calib_adj@buf(6), ui_disp_menu_warn_v_adj@buf(6), 
		 -> ui_disp_menu_warn_t_adj@buf(6), ui_disp_menu_poly_c_adj@buf(6), ui_disp_menu_calib_pr_adj@buf(10), ui_disp_menu_calib_diff_adj@buf(10), 
		 -> ui_disp_menu_pos_adj@buf(6), ui_disp_adj_xfixed_pt_dp@buf(10), ui_disp_adj_xfixed_pt@buf(10), ui_disp_adj_xfloat_pt@buf(10), 
  s               2    2[BANK0 ] PTR unsigned char 
		 -> STR_33(9), STR_32(9), STR_31(5), STR_30(5), 
		 -> STR_29(5), STR_28(5), STR_27(5), ui_disp_menu_epr_ilp_scale_adj@buf(6), 
		 -> STR_26(5), STR_25(5), STR_24(5), STR_23(5), 
		 -> ui_disp_menu_epr_calib_adj@buf(6), STR_22(5), ui_disp_menu_warn_v_adj@buf(6), STR_21(5), 
		 -> STR_20(5), STR_19(5), STR_18(5), STR_17(5), 
		 -> STR_16(5), STR_15(5), ui_disp_menu_poly_c_adj@buf(6), STR_14(5), 
		 -> ui_disp_menu_calib_pr_adj@buf(10), STR_13(5), ui_disp_menu_calib_diff_adj@buf(10), STR_12(5), 
		 -> STR_11(5), STR_10(5), STR_9(5), STR_8(5), 
		 -> STR_7(5), STR_6(5), STR_5(5), STR_4(5), 
		 -> STR_3(5), 
 Auto vars:     Size  Location     Type
		None
 Return value:  Size  Location     Type
                  1    wreg      void 
 Registers used:
		wreg, fsr0l, fsr0h, fsr2l, fsr2h, status,2, status,0, tblptrl, tblptrh, tblptru
 Tracked objects:
		On entry : 
		On exit  : 
		Unchanged: 
 Data sizes:     COMRAM   BANK0   BANK1   BANK2   BANK3   BANK4   BANK5   BANK6   BANK7   BANK8   BANK9  BANK10  BANK11  BANK12  BANK13  BANK14  BANK15
      Params:         0       4       0       0       0       0       0       0       0       0       0       0       0       0       0       0       0
      Locals:         0       0       0       0       0       0       0       0       0       0       0       0       0       0       0       0       0
      Temps:          0       0       0       0       0       0       0       0       0       0       0       0       0       0       0       0       0
      Totals:         0       4       0       0       0       0       0       0       0       0       0       0       0       0       0       0       0
Total ram usage:        4 bytes
 Hardware stack levels used:    1
 Hardware stack levels required when called:    4
 This function calls:
		Nothing
 This function is called by:
		_ui_disp_adj_xfloat_pt
		_ui_disp_adj_xfixed_pt
		_ui_disp_adj_xfixed_pt_dp
		_ui_disp_menu_pos_adj
		_ui_disp_menu_calib_diff_adj
		_ui_disp_menu_calib_pr_adj
		_ui_disp_menu_poly_c_adj
		_ui_disp_menu_warn_t_adj
		_ui_disp_menu_warn_v_adj
		_ui_disp_menu_epr_calib_adj
		_ui_disp_menu_epr_ilp_scale_adj
		_ui_disp_menu_work_mode_adj
 This function uses a non-reentrant model


 *************** function _m_int16_2_str_4 *****************
 Defined at:
		line 260 in file "src/depend/m_string.c"
 Parameters:    Size  Location     Type
  buf             2    8[BANK0 ] PTR unsigned char 
		 -> ui_disp_xfloat_pt@buf(10), ui_disp_adj_xfixed_pt_dp@buf(10), ui_disp_adj_xfixed_pt@buf(10), ui_disp_adj_xfloat_pt@buf(10), 
  x               2   10[BANK0 ] int 
 Auto vars:     Size  Location     Type
		None
 Return value:  Size  Location     Type
                  1    wreg      void 
 Registers used:
		wreg, fsr2l, fsr2h, status,2, status,0, tblptrl, tblptrh, tblptru, cstack
 Tracked objects:
		On entry : 
		On exit  : 
		Unchanged: 
 Data sizes:     COMRAM   BANK0   BANK1   BANK2   BANK3   BANK4   BANK5   BANK6   BANK7   BANK8   BANK9  BANK10  BANK11  BANK12  BANK13  BANK14  BANK15
      Params:         0       4       0       0       0       0       0       0       0       0       0       0       0       0       0       0       0
      Locals:         0       0       0       0       0       0       0       0       0       0       0       0       0       0       0       0       0
      Temps:          0       0       0       0       0       0       0       0       0       0       0       0       0       0       0       0       0
      Totals:         0       4       0       0       0       0       0       0       0       0       0       0       0       0       0       0       0
Total ram usage:        4 bytes
 Hardware stack levels used:    1
 Hardware stack levels required when called:    5
 This function calls:
		___awdiv
		___awmod
 This function is called by:
		_ui_disp_adj_xfloat_pt
		_ui_disp_adj_xfixed_pt
		_ui_disp_adj_xfixed_pt_dp
		_ui_disp_xfloat_pt
 This function uses a non-reentrant model


 *************** function ___awmod *****************
 Defined at:
		line 8 in file "C:\Program Files (x86)\Microchip\xc8\v1.41\sources\common\awmod.c"
 Parameters:    Size  Location     Type
  dividend        2    0[BANK0 ] int 
  divisor         2    2[BANK0 ] int 
 Auto vars:     Size  Location     Type
  sign            1    5[BANK0 ] unsigned char 
  counter         1    4[BANK0 ] unsigned char 
 Return value:  Size  Location     Type
                  2    0[BANK0 ] int 
 Registers used:
		wreg, status,2, status,0
 Tracked objects:
		On entry : 
		On exit  : 
		Unchanged: 
 Data sizes:     COMRAM   BANK0   BANK1   BANK2   BANK3   BANK4   BANK5   BANK6   BANK7   BANK8   BANK9  BANK10  BANK11  BANK12  BANK13  BANK14  BANK15
      Params:         0       4       0       0       0       0       0       0       0       0       0       0       0       0       0       0       0
      Locals:         0       2       0       0       0       0       0       0       0       0       0       0       0       0       0       0       0
      Temps:          0       0       0       0       0       0       0       0       0       0       0       0       0       0       0       0       0
      Totals:         0       6       0       0       0       0       0       0       0       0       0       0       0       0       0       0       0
Total ram usage:        6 bytes
 Hardware stack levels used:    1
 Hardware stack levels required when called:    4
 This function calls:
		Nothing
 This function is called by:
		_ui_disp_menu_calib_diff_adj
		_ui_disp_menu_calib_pr_adj
		_m_int16_2_str_4
 This function uses a non-reentrant model


 *************** function _lcd_disp_refresh *****************
 Defined at:
		line 572 in file "src/driver/lcd.c"
 Parameters:    Size  Location     Type
		None
 Auto vars:     Size  Location     Type
		None
 Return value:  Size  Location     Type
                  1    wreg      void 
 Registers used:
		None
 Tracked objects:
		On entry : 
		On exit  : 
		Unchanged: 
 Data sizes:     COMRAM   BANK0   BANK1   BANK2   BANK3   BANK4   BANK5   BANK6   BANK7   BANK8   BANK9  BANK10  BANK11  BANK12  BANK13  BANK14  BANK15
      Params:         0       0       0       0       0       0       0       0       0       0       0       0       0       0       0       0       0
      Locals:         0       0       0       0       0       0       0       0       0       0       0       0       0       0       0       0       0
      Temps:          0       0       0       0       0       0       0       0       0       0       0       0       0       0       0       0       0
      Totals:         0       0       0       0       0       0       0       0       0       0       0       0       0       0       0       0       0
Total ram usage:        0 bytes
 Hardware stack levels used:    1
 Hardware stack levels required when called:    4
 This function calls:
		Nothing
 This function is called by:
		_ui_disp_start_cs600
		_ui_disp_adj_xfloat_pt
		_ui_disp_adj_xfixed_pt
		_ui_disp_adj_xfixed_pt_dp
		_ui_disp_menu_home
		_ui_disp_menu_pos_adj
		_ui_disp_menu_calib_diff_adj
		_ui_disp_menu_calib_pr_adj
		_ui_disp_menu_warn_t_adj
		_ui_disp_menu_work_mode_adj
		_ui_disp_all_on
		_ui_disp_all_off
		_ui_disp_rtc_mm_ss
		_ui_disp_menu_home_00
		_ui_disp_menu_home_01
		_ui_disp_menu_home_02
 This function uses a non-reentrant model


 *************** function ___x_arrange_str *****************
 Defined at:
		line 11 in file "src/api/ui.c"
 Parameters:    Size  Location     Type
  str             2    0[BANK0 ] PTR unsigned char 
		 -> ui_disp_adj_xfixed_pt_dp@buf(10), ui_disp_adj_xfixed_pt@buf(10), ui_disp_adj_xfloat_pt@buf(10), 
  len             1    2[BANK0 ] unsigned char 
 Auto vars:     Size  Location     Type
  i               1   31[COMRAM] unsigned char 
 Return value:  Size  Location     Type
                  1    wreg      void 
 Registers used:
		wreg, fsr2l, fsr2h, status,2, status,0, prodl, prodh
 Tracked objects:
		On entry : 
		On exit  : 
		Unchanged: 
 Data sizes:     COMRAM   BANK0   BANK1   BANK2   BANK3   BANK4   BANK5   BANK6   BANK7   BANK8   BANK9  BANK10  BANK11  BANK12  BANK13  BANK14  BANK15
      Params:         0       3       0       0       0       0       0       0       0       0       0       0       0       0       0       0       0
      Locals:         1       0       0       0       0       0       0       0       0       0       0       0       0       0       0       0       0
      Temps:          0       0       0       0       0       0       0       0       0       0       0       0       0       0       0       0       0
      Totals:         1       3       0       0       0       0       0       0       0       0       0       0       0       0       0       0       0
Total ram usage:        4 bytes
 Hardware stack levels used:    1
 Hardware stack levels required when called:    4
 This function calls:
		Nothing
 This function is called by:
		_ui_disp_adj_xfloat_pt
		_ui_disp_adj_xfixed_pt
		_ui_disp_adj_xfixed_pt_dp
 This function uses a non-reentrant model


 *************** function _lcd_disp_logo *****************
 Defined at:
		line 379 in file "src/driver/lcd.c"
 Parameters:    Size  Location     Type
  show            1    wreg     unsigned char 
 Auto vars:     Size  Location     Type
  show            1   31[COMRAM] unsigned char 
 Return value:  Size  Location     Type
                  1    wreg      void 
 Registers used:
		wreg, fsr2l, fsr2h, status,2, status,0, prodl, prodh, cstack
 Tracked objects:
		On entry : 
		On exit  : 
		Unchanged: 
 Data sizes:     COMRAM   BANK0   BANK1   BANK2   BANK3   BANK4   BANK5   BANK6   BANK7   BANK8   BANK9  BANK10  BANK11  BANK12  BANK13  BANK14  BANK15
      Params:         0       0       0       0       0       0       0       0       0       0       0       0       0       0       0       0       0
      Locals:         1       0       0       0       0       0       0       0       0       0       0       0       0       0       0       0       0
      Temps:          0       0       0       0       0       0       0       0       0       0       0       0       0       0       0       0       0
      Totals:         1       0       0       0       0       0       0       0       0       0       0       0       0       0       0       0       0
Total ram usage:        1 bytes
 Hardware stack levels used:    1
 Hardware stack levels required when called:    6
 This function calls:
		_lcd_set_com_seg
 This function is called by:
		_ui_disp_start_cs600
		_ui_disp_menu_psw_adj
		_ui_disp_menu_home
		_ui_disp_menu_density_adj
		_ui_disp_menu_pos_adj
		_ui_disp_menu_h_adj
		_ui_disp_menu_d_adj
		_ui_disp_menu_bzero_adj
		_ui_disp_menu_calib_diff_adj
		_ui_disp_menu_calib_pr_adj
		_ui_disp_menu_poly_c_adj
		_ui_disp_menu_warn_t_adj
		_ui_disp_menu_warn_v_adj
		_ui_disp_menu_epr_calib_adj
		_ui_disp_menu_epr_ilp_scale_adj
		_ui_disp_menu_bar_full_adj
		_ui_disp_menu_work_mode_adj
 This function uses a non-reentrant model


 *************** function _lcd_set_com_seg *****************
 Defined at:
		line 33 in file "src/driver/lcd.c"
 Parameters:    Size  Location     Type
  com             1    wreg     unsigned char 
  seg             1    8[BANK0 ] unsigned char 
  show            1    9[BANK0 ] unsigned char 
 Auto vars:     Size  Location     Type
  com             1   13[BANK0 ] unsigned char 
  bits            1   15[BANK0 ] unsigned char 
  offset          1   14[BANK0 ] unsigned char 
 Return value:  Size  Location     Type
                  1    wreg      void 
 Registers used:
		wreg, fsr2l, fsr2h, status,2, status,0, prodl, prodh, cstack
 Tracked objects:
		On entry : 
		On exit  : 
		Unchanged: 
 Data sizes:     COMRAM   BANK0   BANK1   BANK2   BANK3   BANK4   BANK5   BANK6   BANK7   BANK8   BANK9  BANK10  BANK11  BANK12  BANK13  BANK14  BANK15
      Params:         0       2       0       0       0       0       0       0       0       0       0       0       0       0       0       0       0
      Locals:         0       3       0       0       0       0       0       0       0       0       0       0       0       0       0       0       0
      Temps:          0       3       0       0       0       0       0       0       0       0       0       0       0       0       0       0       0
      Totals:         0       8       0       0       0       0       0       0       0       0       0       0       0       0       0       0       0
Total ram usage:        8 bytes
 Hardware stack levels used:    1
 Hardware stack levels required when called:    5
 This function calls:
		___awdiv
 This function is called by:
		_lcd_disp_level_bar
		_lcd_disp_chr_loc_0
		_lcd_disp_dp_loc_0
		_lcd_disp_chr_loc_1
		_lcd_disp_dp_loc_1
		_lcd_disp_chr_loc_2
		_lcd_disp_dp_loc_2
		_lcd_disp_chr_loc_3
		_lcd_disp_chr_loc_4
		_lcd_disp_dp_loc_4
		_lcd_disp_chr_loc_5
		_lcd_disp_dp_loc_5
		_lcd_disp_chr_loc_6
		_lcd_disp_dp_loc_6
		_lcd_disp_chr_loc_7
		_lcd_disp_logo
		_lcd_disp_unit_t
		_lcd_disp_unit_1st_m
		_lcd_disp_unit_1st_m3
		_lcd_disp_unit_temperature
		_lcd_disp_unit_2nd_m
		_lcd_disp_unit_2nd_m3
		_lcd_disp_unit_mpa
		_lcd_disp_battary_bar
		_lcd_disp_rf_bar
		_lcd_disp_light_bar
 This function uses a non-reentrant model


 *************** function ___awdiv *****************
 Defined at:
		line 8 in file "C:\Program Files (x86)\Microchip\xc8\v1.41\sources\common\awdiv.c"
 Parameters:    Size  Location     Type
  dividend        2    0[BANK0 ] int 
  divisor         2    2[BANK0 ] int 
 Auto vars:     Size  Location     Type
  quotient        2    6[BANK0 ] int 
  sign            1    5[BANK0 ] unsigned char 
  counter         1    4[BANK0 ] unsigned char 
 Return value:  Size  Location     Type
                  2    0[BANK0 ] int 
 Registers used:
		wreg, status,2, status,0
 Tracked objects:
		On entry : 
		On exit  : 
		Unchanged: 
 Data sizes:     COMRAM   BANK0   BANK1   BANK2   BANK3   BANK4   BANK5   BANK6   BANK7   BANK8   BANK9  BANK10  BANK11  BANK12  BANK13  BANK14  BANK15
      Params:         0       4       0       0       0       0       0       0       0       0       0       0       0       0       0       0       0
      Locals:         0       4       0       0       0       0       0       0       0       0       0       0       0       0       0       0       0
      Temps:          0       0       0       0       0       0       0       0       0       0       0       0       0       0       0       0       0
      Totals:         0       8       0       0       0       0       0       0       0       0       0       0       0       0       0       0       0
Total ram usage:        8 bytes
 Hardware stack levels used:    1
 Hardware stack levels required when called:    4
 This function calls:
		Nothing
 This function is called by:
		_m_int16_2_str_4
		_lcd_set_com_seg
 This function uses a non-reentrant model


 *************** function _lcd_disp_all *****************
 Defined at:
		line 603 in file "src/driver/lcd.c"
 Parameters:    Size  Location     Type
  x               1    wreg     unsigned char 
 Auto vars:     Size  Location     Type
  x               1    0[BANK0 ] unsigned char 
  i               1    1[BANK0 ] unsigned char 
 Return value:  Size  Location     Type
                  1    wreg      void 
 Registers used:
		wreg, fsr2l, fsr2h, status,2, status,0, prodl, prodh
 Tracked objects:
		On entry : 
		On exit  : 
		Unchanged: 
 Data sizes:     COMRAM   BANK0   BANK1   BANK2   BANK3   BANK4   BANK5   BANK6   BANK7   BANK8   BANK9  BANK10  BANK11  BANK12  BANK13  BANK14  BANK15
      Params:         0       0       0       0       0       0       0       0       0       0       0       0       0       0       0       0       0
      Locals:         0       2       0       0       0       0       0       0       0       0       0       0       0       0       0       0       0
      Temps:          0       0       0       0       0       0       0       0       0       0       0       0       0       0       0       0       0
      Totals:         0       2       0       0       0       0       0       0       0       0       0       0       0       0       0       0       0
Total ram usage:        2 bytes
 Hardware stack levels used:    1
 Hardware stack levels required when called:    4
 This function calls:
		Nothing
 This function is called by:
		_ui_disp_start_cs600
		_ui_disp_menu_psw_adj
		_ui_disp_menu_home
		_ui_disp_menu_density_adj
		_ui_disp_menu_pos_adj
		_ui_disp_menu_h_adj
		_ui_disp_menu_d_adj
		_ui_disp_menu_bzero_adj
		_ui_disp_menu_calib_diff_adj
		_ui_disp_menu_calib_pr_adj
		_ui_disp_menu_poly_c_adj
		_ui_disp_menu_warn_t_adj
		_ui_disp_menu_warn_v_adj
		_ui_disp_menu_epr_calib_adj
		_ui_disp_menu_epr_ilp_scale_adj
		_ui_disp_menu_bar_full_adj
		_ui_disp_menu_work_mode_adj
		_lcd_config
		_ui_disp_all_on
		_ui_disp_all_off
 This function uses a non-reentrant model


 *************** function _sample_function_enable_fi_in_rtc *****************
 Defined at:
		line 162 in file "src/api/sample.c"
 Parameters:    Size  Location     Type
		None
 Auto vars:     Size  Location     Type
  ret             1  134[BANK0 ] unsigned char 
 Return value:  Size  Location     Type
                  1    wreg      void 
 Registers used:
		wreg, fsr1l, fsr1h, fsr2l, fsr2h, status,2, status,0, tblptrl, tblptrh, tblptru, prodl, prodh, cstack
 Tracked objects:
		On entry : 
		On exit  : 
		Unchanged: 
 Data sizes:     COMRAM   BANK0   BANK1   BANK2   BANK3   BANK4   BANK5   BANK6   BANK7   BANK8   BANK9  BANK10  BANK11  BANK12  BANK13  BANK14  BANK15
      Params:         0       0       0       0       0       0       0       0       0       0       0       0       0       0       0       0       0
      Locals:         0       1       0       0       0       0       0       0       0       0       0       0       0       0       0       0       0
      Temps:          0       0       0       0       0       0       0       0       0       0       0       0       0       0       0       0       0
      Totals:         0       1       0       0       0       0       0       0       0       0       0       0       0       0       0       0       0
Total ram usage:        1 bytes
 Hardware stack levels used:    1
 Hardware stack levels required when called:    9
 This function calls:
		_sample_all_power_off
		_sample_all_power_on
		_sample_call_cal_diff_pr
		_sample_call_cal_in_soc
		_sample_call_cal_pr
		_sample_variable_init
 This function is called by:
		_event_process_rtc
 This function uses a non-reentrant model


 *************** function _sample_variable_init *****************
 Defined at:
		line 104 in file "src/api/sample.c"
 Parameters:    Size  Location     Type
		None
 Auto vars:     Size  Location     Type
		None
 Return value:  Size  Location     Type
                  1    wreg      void 
 Registers used:
		wreg, status,2
 Tracked objects:
		On entry : 
		On exit  : 
		Unchanged: 
 Data sizes:     COMRAM   BANK0   BANK1   BANK2   BANK3   BANK4   BANK5   BANK6   BANK7   BANK8   BANK9  BANK10  BANK11  BANK12  BANK13  BANK14  BANK15
      Params:         0       0       0       0       0       0       0       0       0       0       0       0       0       0       0       0       0
      Locals:         0       0       0       0       0       0       0       0       0       0       0       0       0       0       0       0       0
      Temps:          0       0       0       0       0       0       0       0       0       0       0       0       0       0       0       0       0
      Totals:         0       0       0       0       0       0       0       0       0       0       0       0       0       0       0       0       0
Total ram usage:        0 bytes
 Hardware stack levels used:    1
 Hardware stack levels required when called:    4
 This function calls:
		Nothing
 This function is called by:
		_sample_function_enable_fi_in_rtc
 This function uses a non-reentrant model


 *************** function _sample_call_cal_pr *****************
 Defined at:
		line 131 in file "src/api/sample.c"
 Parameters:    Size  Location     Type
		None
 Auto vars:     Size  Location     Type
		None
 Return value:  Size  Location     Type
                  1    wreg      unsigned char 
 Registers used:
		wreg, fsr1l, fsr1h, fsr2l, fsr2h, status,2, status,0, prodl, prodh, cstack
 Tracked objects:
		On entry : 
		On exit  : 
		Unchanged: 
 Data sizes:     COMRAM   BANK0   BANK1   BANK2   BANK3   BANK4   BANK5   BANK6   BANK7   BANK8   BANK9  BANK10  BANK11  BANK12  BANK13  BANK14  BANK15
      Params:         0       0       0       0       0       0       0       0       0       0       0       0       0       0       0       0       0
      Locals:         0       0       0       0       0       0       0       0       0       0       0       0       0       0       0       0       0
      Temps:          0       0       0       0       0       0       0       0       0       0       0       0       0       0       0       0       0
      Totals:         0       0       0       0       0       0       0       0       0       0       0       0       0       0       0       0       0
Total ram usage:        0 bytes
 Hardware stack levels used:    1
 Hardware stack levels required when called:    7
 This function calls:
		_cal_press
		_cal_pt100_temperature_ex
 This function is called by:
		_sample_call_in_ticker
		_sample_function_enable_fi_in_rtc
 This function uses a non-reentrant model


 *************** function _cal_pt100_temperature_ex *****************
 Defined at:
		line 617 in file "src/api/data.c"
 Parameters:    Size  Location     Type
		None
 Auto vars:     Size  Location     Type
		None
 Return value:  Size  Location     Type
                  1    wreg      void 
 Registers used:
		wreg, status,2
 Tracked objects:
		On entry : 
		On exit  : 
		Unchanged: 
 Data sizes:     COMRAM   BANK0   BANK1   BANK2   BANK3   BANK4   BANK5   BANK6   BANK7   BANK8   BANK9  BANK10  BANK11  BANK12  BANK13  BANK14  BANK15
      Params:         0       0       0       0       0       0       0       0       0       0       0       0       0       0       0       0       0
      Locals:         0       0       0       0       0       0       0       0       0       0       0       0       0       0       0       0       0
      Temps:          0       0       0       0       0       0       0       0       0       0       0       0       0       0       0       0       0
      Totals:         0       0       0       0       0       0       0       0       0       0       0       0       0       0       0       0       0
Total ram usage:        0 bytes
 Hardware stack levels used:    1
 Hardware stack levels required when called:    4
 This function calls:
		Nothing
 This function is called by:
		_sample_call_cal_pr
 This function uses a non-reentrant model


 *************** function _cal_press *****************
 Defined at:
		line 571 in file "src/api/data.c"
 Parameters:    Size  Location     Type
		None
 Auto vars:     Size  Location     Type
  xin             8   61[BANK0 ] struct .
  tabrow          2   59[BANK0 ] PTR struct .
		 -> prCalibTabDef.prCalibRow(156), prCalibTabDef(162), 
  ret             1   58[BANK0 ] unsigned char 
 Return value:  Size  Location     Type
                  1    wreg      unsigned char 
 Registers used:
		wreg, fsr1l, fsr1h, fsr2l, fsr2h, status,2, status,0, prodl, prodh, cstack
 Tracked objects:
		On entry : 
		On exit  : 
		Unchanged: 
 Data sizes:     COMRAM   BANK0   BANK1   BANK2   BANK3   BANK4   BANK5   BANK6   BANK7   BANK8   BANK9  BANK10  BANK11  BANK12  BANK13  BANK14  BANK15
      Params:         0       0       0       0       0       0       0       0       0       0       0       0       0       0       0       0       0
      Locals:         0      11       0       0       0       0       0       0       0       0       0       0       0       0       0       0       0
      Temps:          0       0       0       0       0       0       0       0       0       0       0       0       0       0       0       0       0
      Totals:         0      11       0       0       0       0       0       0       0       0       0       0       0       0       0       0       0
Total ram usage:       11 bytes
 Hardware stack levels used:    1
 Hardware stack levels required when called:    6
 This function calls:
		_m_interp1_cal_p_v
 This function is called by:
		_sample_call_cal_pr
 This function uses a non-reentrant model


 *************** function _sample_call_cal_in_soc *****************
 Defined at:
		line 139 in file "src/api/sample.c"
 Parameters:    Size  Location     Type
		None
 Auto vars:     Size  Location     Type
		None
 Return value:  Size  Location     Type
                  1    wreg      unsigned char 
 Registers used:
		wreg, fsr2l, fsr2h, status,2, status,0, prodl, prodh, cstack
 Tracked objects:
		On entry : 
		On exit  : 
		Unchanged: 
 Data sizes:     COMRAM   BANK0   BANK1   BANK2   BANK3   BANK4   BANK5   BANK6   BANK7   BANK8   BANK9  BANK10  BANK11  BANK12  BANK13  BANK14  BANK15
      Params:         0       0       0       0       0       0       0       0       0       0       0       0       0       0       0       0       0
      Locals:         0       0       0       0       0       0       0       0       0       0       0       0       0       0       0       0       0
      Temps:          0       0       0       0       0       0       0       0       0       0       0       0       0       0       0       0       0
      Totals:         0       0       0       0       0       0       0       0       0       0       0       0       0       0       0       0       0
Total ram usage:        0 bytes
 Hardware stack levels used:    1
 Hardware stack levels required when called:    5
 This function calls:
		_cal_additional_pressute
 This function is called by:
		_sample_call_in_ticker
		_sample_function_enable_fi_in_rtc
 This function uses a non-reentrant model


 *************** function _cal_additional_pressute *****************
 Defined at:
		line 641 in file "src/api/data.c"
 Parameters:    Size  Location     Type
  index           1    wreg     unsigned char 
 Auto vars:     Size  Location     Type
  index           1   31[COMRAM] unsigned char 
 Return value:  Size  Location     Type
                  1    wreg      void 
 Registers used:
		wreg, fsr2l, fsr2h, status,2, status,0, prodl, prodh
 Tracked objects:
		On entry : 
		On exit  : 
		Unchanged: 
 Data sizes:     COMRAM   BANK0   BANK1   BANK2   BANK3   BANK4   BANK5   BANK6   BANK7   BANK8   BANK9  BANK10  BANK11  BANK12  BANK13  BANK14  BANK15
      Params:         0       0       0       0       0       0       0       0       0       0       0       0       0       0       0       0       0
      Locals:         1       0       0       0       0       0       0       0       0       0       0       0       0       0       0       0       0
      Temps:          0       0       0       0       0       0       0       0       0       0       0       0       0       0       0       0       0
      Totals:         1       0       0       0       0       0       0       0       0       0       0       0       0       0       0       0       0
Total ram usage:        1 bytes
 Hardware stack levels used:    1
 Hardware stack levels required when called:    4
 This function calls:
		Nothing
 This function is called by:
		_sample_call_cal_in_soc
 This function uses a non-reentrant model


 *************** function _sample_call_cal_diff_pr *****************
 Defined at:
		line 123 in file "src/api/sample.c"
 Parameters:    Size  Location     Type
		None
 Auto vars:     Size  Location     Type
		None
 Return value:  Size  Location     Type
                  1    wreg      unsigned char 
 Registers used:
		wreg, fsr1l, fsr1h, fsr2l, fsr2h, status,2, status,0, tblptrl, tblptrh, tblptru, prodl, prodh, cstack
 Tracked objects:
		On entry : 
		On exit  : 
		Unchanged: 
 Data sizes:     COMRAM   BANK0   BANK1   BANK2   BANK3   BANK4   BANK5   BANK6   BANK7   BANK8   BANK9  BANK10  BANK11  BANK12  BANK13  BANK14  BANK15
      Params:         0       0       0       0       0       0       0       0       0       0       0       0       0       0       0       0       0
      Locals:         0       0       0       0       0       0       0       0       0       0       0       0       0       0       0       0       0
      Temps:          0       0       0       0       0       0       0       0       0       0       0       0       0       0       0       0       0
      Totals:         0       0       0       0       0       0       0       0       0       0       0       0       0       0       0       0       0
Total ram usage:        0 bytes
 Hardware stack levels used:    1
 Hardware stack levels required when called:    8
 This function calls:
		_cal_diff_press
		_cal_pt100_temperature_in
 This function is called by:
		_sample_call_in_ticker
		_sample_function_enable_fi_in_rtc
 This function uses a non-reentrant model


 *************** function _cal_pt100_temperature_in *****************
 Defined at:
		line 593 in file "src/api/data.c"
 Parameters:    Size  Location     Type
		None
 Auto vars:     Size  Location     Type
		None
 Return value:  Size  Location     Type
                  1    wreg      void 
 Registers used:
		wreg, status,2
 Tracked objects:
		On entry : 
		On exit  : 
		Unchanged: 
 Data sizes:     COMRAM   BANK0   BANK1   BANK2   BANK3   BANK4   BANK5   BANK6   BANK7   BANK8   BANK9  BANK10  BANK11  BANK12  BANK13  BANK14  BANK15
      Params:         0       0       0       0       0       0       0       0       0       0       0       0       0       0       0       0       0
      Locals:         0       0       0       0       0       0       0       0       0       0       0       0       0       0       0       0       0
      Temps:          0       0       0       0       0       0       0       0       0       0       0       0       0       0       0       0       0
      Totals:         0       0       0       0       0       0       0       0       0       0       0       0       0       0       0       0       0
Total ram usage:        0 bytes
 Hardware stack levels used:    1
 Hardware stack levels required when called:    4
 This function calls:
		Nothing
 This function is called by:
		_sample_call_cal_diff_pr
 This function uses a non-reentrant model


 *************** function _cal_diff_press *****************
 Defined at:
		line 535 in file "src/api/data.c"
 Parameters:    Size  Location     Type
		None
 Auto vars:     Size  Location     Type
  xin             2   22[BANK3 ] PTR struct .
		 -> x_prDiffData(8), 
  tabrow          2   20[BANK3 ] PTR struct .
		 -> diff_prCalibTabDef.prCalibRow(156), diff_prCalibTabDef(162), 
  i               1   24[BANK3 ] unsigned char 
 Return value:  Size  Location     Type
                  1    wreg      unsigned char 
 Registers used:
		wreg, fsr1l, fsr1h, fsr2l, fsr2h, status,2, status,0, tblptrl, tblptrh, tblptru, prodl, prodh, cstack
 Tracked objects:
		On entry : 
		On exit  : 
		Unchanged: 
 Data sizes:     COMRAM   BANK0   BANK1   BANK2   BANK3   BANK4   BANK5   BANK6   BANK7   BANK8   BANK9  BANK10  BANK11  BANK12  BANK13  BANK14  BANK15
      Params:         0       0       0       0       0       0       0       0       0       0       0       0       0       0       0       0       0
      Locals:         0       0       0       0       5       0       0       0       0       0       0       0       0       0       0       0       0
      Temps:          0       0       0       0       0       0       0       0       0       0       0       0       0       0       0       0       0
      Totals:         0       0       0       0       5       0       0       0       0       0       0       0       0       0       0       0       0
Total ram usage:        5 bytes
 Hardware stack levels used:    1
 Hardware stack levels required when called:    7
 This function calls:
		_cal_diff_hight_level
		_cal_diff_hight_to_vol_h
		_cal_diff_hight_to_vol_v
		_cal_diff_p_to_h
		_m_interp1_cal_p_t
		_m_interp1_cal_p_v
		_m_mem_set
 This function is called by:
		_sample_call_cal_diff_pr
 This function uses a non-reentrant model


 *************** function _m_mem_set *****************
 Defined at:
		line 32 in file "src/depend/m_string.c"
 Parameters:    Size  Location     Type
  buf             2    0[BANK0 ] PTR unsigned char 
		 -> tmpx(24), 
  x               1    2[BANK0 ] unsigned char 
  len             1    3[BANK0 ] unsigned char 
 Auto vars:     Size  Location     Type
		None
 Return value:  Size  Location     Type
                  1    wreg      void 
 Registers used:
		wreg, fsr2l, fsr2h, status,2, status,0
 Tracked objects:
		On entry : 
		On exit  : 
		Unchanged: 
 Data sizes:     COMRAM   BANK0   BANK1   BANK2   BANK3   BANK4   BANK5   BANK6   BANK7   BANK8   BANK9  BANK10  BANK11  BANK12  BANK13  BANK14  BANK15
      Params:         0       4       0       0       0       0       0       0       0       0       0       0       0       0       0       0       0
      Locals:         0       0       0       0       0       0       0       0       0       0       0       0       0       0       0       0       0
      Temps:          0       0       0       0       0       0       0       0       0       0       0       0       0       0       0       0       0
      Totals:         0       4       0       0       0       0       0       0       0       0       0       0       0       0       0       0       0
Total ram usage:        4 bytes
 Hardware stack levels used:    1
 Hardware stack levels required when called:    4
 This function calls:
		Nothing
 This function is called by:
		_cal_diff_press
 This function uses a non-reentrant model


 *************** function _m_interp1_cal_p_v *****************
 Defined at:
		line 339 in file "src/api/data.c"
 Parameters:    Size  Location     Type
  tabrow          2   26[BANK0 ] PTR struct .
		 -> prCalibTabDef.prCalibRow(156), diff_prCalibTabDef.prCalibRow(156), prCalibTabDef(162), diff_prCalibTabDef(162), 
  xin             2   28[BANK0 ] PTR struct .
		 -> cal_press@xin(8), x_prDiffData(8), 
  xout            2   30[BANK0 ] PTR struct .
		 -> tmpx(24), NULL(0), 
 Auto vars:     Size  Location     Type
  pr              4   53[BANK0 ] long 
  x               4   47[BANK0 ] long 
  y               4   43[BANK0 ] long 
  t16             2   51[BANK0 ] int 
  i               1   57[BANK0 ] unsigned char 
 Return value:  Size  Location     Type
                  1    wreg      unsigned char 
 Registers used:
		wreg, fsr1l, fsr1h, fsr2l, fsr2h, status,2, status,0, prodl, prodh, cstack
 Tracked objects:
		On entry : 
		On exit  : 
		Unchanged: 
 Data sizes:     COMRAM   BANK0   BANK1   BANK2   BANK3   BANK4   BANK5   BANK6   BANK7   BANK8   BANK9  BANK10  BANK11  BANK12  BANK13  BANK14  BANK15
      Params:         0       6       0       0       0       0       0       0       0       0       0       0       0       0       0       0       0
      Locals:         0      15       0       0       0       0       0       0       0       0       0       0       0       0       0       0       0
      Temps:          0      11       0       0       0       0       0       0       0       0       0       0       0       0       0       0       0
      Totals:         0      32       0       0       0       0       0       0       0       0       0       0       0       0       0       0       0
Total ram usage:       32 bytes
 Hardware stack levels used:    1
 Hardware stack levels required when called:    5
 This function calls:
		___aldiv
		___lmul
 This function is called by:
		_cal_diff_press
		_cal_press
 This function uses a non-reentrant model


 *************** function _m_interp1_cal_p_t *****************
 Defined at:
		line 393 in file "src/api/data.c"
 Parameters:    Size  Location     Type
  tmpx            2   26[BANK0 ] PTR struct .
		 -> tmpx(24), 
  xin             2   28[BANK0 ] PTR struct .
		 -> x_prDiffData(8), 
  tmpxLen         1   30[BANK0 ] unsigned char 
 Auto vars:     Size  Location     Type
  pr              4   50[BANK0 ] long 
  x               4   46[BANK0 ] long 
  y               4   42[BANK0 ] long 
  t16             2   54[BANK0 ] int 
  i               1   56[BANK0 ] unsigned char 
 Return value:  Size  Location     Type
                  1    wreg      unsigned char 
 Registers used:
		wreg, fsr1l, fsr1h, fsr2l, fsr2h, status,2, status,0, prodl, prodh, cstack
 Tracked objects:
		On entry : 
		On exit  : 
		Unchanged: 
 Data sizes:     COMRAM   BANK0   BANK1   BANK2   BANK3   BANK4   BANK5   BANK6   BANK7   BANK8   BANK9  BANK10  BANK11  BANK12  BANK13  BANK14  BANK15
      Params:         0       5       0       0       0       0       0       0       0       0       0       0       0       0       0       0       0
      Locals:         0      15       0       0       0       0       0       0       0       0       0       0       0       0       0       0       0
      Temps:          0      11       0       0       0       0       0       0       0       0       0       0       0       0       0       0       0
      Totals:         0      31       0       0       0       0       0       0       0       0       0       0       0       0       0       0       0
Total ram usage:       31 bytes
 Hardware stack levels used:    1
 Hardware stack levels required when called:    5
 This function calls:
		___aldiv
		___lmul
 This function is called by:
		_cal_diff_press
 This function uses a non-reentrant model


 *************** function ___lmul *****************
 Defined at:
		line 15 in file "C:\Program Files (x86)\Microchip\xc8\v1.41\sources\common\Umul32.c"
 Parameters:    Size  Location     Type
  multiplier      4    0[BANK0 ] unsigned long 
  multiplicand    4    4[BANK0 ] unsigned long 
 Auto vars:     Size  Location     Type
  product         4    8[BANK0 ] unsigned long 
 Return value:  Size  Location     Type
                  4    0[BANK0 ] unsigned long 
 Registers used:
		wreg, status,2, status,0
 Tracked objects:
		On entry : 
		On exit  : 
		Unchanged: 
 Data sizes:     COMRAM   BANK0   BANK1   BANK2   BANK3   BANK4   BANK5   BANK6   BANK7   BANK8   BANK9  BANK10  BANK11  BANK12  BANK13  BANK14  BANK15
      Params:         0       8       0       0       0       0       0       0       0       0       0       0       0       0       0       0       0
      Locals:         0       4       0       0       0       0       0       0       0       0       0       0       0       0       0       0       0
      Temps:          0       0       0       0       0       0       0       0       0       0       0       0       0       0       0       0       0
      Totals:         0      12       0       0       0       0       0       0       0       0       0       0       0       0       0       0       0
Total ram usage:       12 bytes
 Hardware stack levels used:    1
 Hardware stack levels required when called:    4
 This function calls:
		Nothing
 This function is called by:
		_m_interp1_cal_p_v
		_m_interp1_cal_p_t
		___mflot32_2_int32
		_cal_pt100_temperature
		_m_math_pow
 This function uses a non-reentrant model


 *************** function ___aldiv *****************
 Defined at:
		line 8 in file "C:\Program Files (x86)\Microchip\xc8\v1.41\sources\common\aldiv.c"
 Parameters:    Size  Location     Type
  dividend        4   12[BANK0 ] long 
  divisor         4   16[BANK0 ] long 
 Auto vars:     Size  Location     Type
  quotient        4   22[BANK0 ] long 
  sign            1   21[BANK0 ] unsigned char 
  counter         1   20[BANK0 ] unsigned char 
 Return value:  Size  Location     Type
                  4   12[BANK0 ] long 
 Registers used:
		wreg, status,2, status,0
 Tracked objects:
		On entry : 
		On exit  : 
		Unchanged: 
 Data sizes:     COMRAM   BANK0   BANK1   BANK2   BANK3   BANK4   BANK5   BANK6   BANK7   BANK8   BANK9  BANK10  BANK11  BANK12  BANK13  BANK14  BANK15
      Params:         0       8       0       0       0       0       0       0       0       0       0       0       0       0       0       0       0
      Locals:         0       6       0       0       0       0       0       0       0       0       0       0       0       0       0       0       0
      Temps:          0       0       0       0       0       0       0       0       0       0       0       0       0       0       0       0       0
      Totals:         0      14       0       0       0       0       0       0       0       0       0       0       0       0       0       0       0
Total ram usage:       14 bytes
 Hardware stack levels used:    1
 Hardware stack levels required when called:    4
 This function calls:
		Nothing
 This function is called by:
		_m_interp1_cal_p_v
		_m_interp1_cal_p_t
		___x_sample_fliter
		___x_sample_fifo
		_cal_pt100_temperature
		_m_int_2_str
 This function uses a non-reentrant model


 *************** function _cal_diff_p_to_h *****************
 Defined at:
		line 521 in file "src/api/data.c"
 Parameters:    Size  Location     Type
  xin             2   98[BANK0 ] PTR struct .
		 -> x_prDiffData(8), 
 Auto vars:     Size  Location     Type
  f1              4  104[BANK0 ] float 
  f2              4  100[BANK0 ] float 
 Return value:  Size  Location     Type
                  4   98[BANK0 ] long 
 Registers used:
		wreg, fsr2l, fsr2h, status,2, status,0, prodl, prodh, cstack
 Tracked objects:
		On entry : 
		On exit  : 
		Unchanged: 
 Data sizes:     COMRAM   BANK0   BANK1   BANK2   BANK3   BANK4   BANK5   BANK6   BANK7   BANK8   BANK9  BANK10  BANK11  BANK12  BANK13  BANK14  BANK15
      Params:         0       2       0       0       0       0       0       0       0       0       0       0       0       0       0       0       0
      Locals:         0       8       0       0       0       0       0       0       0       0       0       0       0       0       0       0       0
      Temps:          0       0       0       0       0       0       0       0       0       0       0       0       0       0       0       0       0
      Totals:         0      10       0       0       0       0       0       0       0       0       0       0       0       0       0       0       0
Total ram usage:       10 bytes
 Hardware stack levels used:    1
 Hardware stack levels required when called:    5
 This function calls:
		___fldiv
		___flmul
		___fltol
		___xxtofl
 This function is called by:
		_cal_diff_press
 This function uses a non-reentrant model


 *************** function _cal_diff_hight_to_vol_v *****************
 Defined at:
		line 490 in file "src/api/data.c"
 Parameters:    Size  Location     Type
  h               4    0[BANK1 ] long 
 Auto vars:     Size  Location     Type
  f1              4   16[BANK3 ] float 
  D               4   12[BANK3 ] float 
  v2              4    8[BANK3 ] float 
  v1              4    4[BANK3 ] float 
 Return value:  Size  Location     Type
                  4    0[BANK1 ] long 
 Registers used:
		wreg, status,2, status,0, tblptrl, tblptrh, tblptru, prodl, prodh, cstack
 Tracked objects:
		On entry : 
		On exit  : 
		Unchanged: 
 Data sizes:     COMRAM   BANK0   BANK1   BANK2   BANK3   BANK4   BANK5   BANK6   BANK7   BANK8   BANK9  BANK10  BANK11  BANK12  BANK13  BANK14  BANK15
      Params:         0       0       4       0       0       0       0       0       0       0       0       0       0       0       0       0       0
      Locals:         0       0       0       0      20       0       0       0       0       0       0       0       0       0       0       0       0
      Temps:          0       0       0       0       0       0       0       0       0       0       0       0       0       0       0       0       0
      Totals:         0       0       4       0      20       0       0       0       0       0       0       0       0       0       0       0       0
Total ram usage:       24 bytes
 Hardware stack levels used:    1
 Hardware stack levels required when called:    6
 This function calls:
		___fladd
		___fldiv
		___flge
		___flmul
		___flneg
		___fltol
		___xxtofl
		_m_interp1_float_fast
 This function is called by:
		_cal_diff_press
 This function uses a non-reentrant model


 *************** function _cal_diff_hight_to_vol_h *****************
 Defined at:
		line 446 in file "src/api/data.c"
 Parameters:    Size  Location     Type
  h               4    0[BANK1 ] long 
 Auto vars:     Size  Location     Type
  f1              4   12[BANK3 ] float 
  v1              4    8[BANK3 ] float 
  f2              4    4[BANK3 ] float 
  v2              4    0[BANK3 ] float 
 Return value:  Size  Location     Type
                  4    0[BANK1 ] long 
 Registers used:
		wreg, status,2, status,0, tblptrl, tblptrh, tblptru, prodl, prodh, cstack
 Tracked objects:
		On entry : 
		On exit  : 
		Unchanged: 
 Data sizes:     COMRAM   BANK0   BANK1   BANK2   BANK3   BANK4   BANK5   BANK6   BANK7   BANK8   BANK9  BANK10  BANK11  BANK12  BANK13  BANK14  BANK15
      Params:         0       0       4       0       0       0       0       0       0       0       0       0       0       0       0       0       0
      Locals:         0       0       0       0      16       0       0       0       0       0       0       0       0       0       0       0       0
      Temps:          0       0       0       0       0       0       0       0       0       0       0       0       0       0       0       0       0
      Totals:         0       0       4       0      16       0       0       0       0       0       0       0       0       0       0       0       0
Total ram usage:       20 bytes
 Hardware stack levels used:    1
 Hardware stack levels required when called:    6
 This function calls:
		___fladd
		___fldiv
		___flge
		___flmul
		___fltol
		___xxtofl
		_m_interp1_float_fast
 This function is called by:
		_cal_diff_press
 This function uses a non-reentrant model


 *************** function _m_interp1_float_fast *****************
 Defined at:
		line 417 in file "src/api/data.c"
 Parameters:    Size  Location     Type
  tab             2  100[BANK0 ] PTR float 
		 -> hKel(404), hKcy(404), 
  in              4  102[BANK0 ] float 
  len             2  106[BANK0 ] int 
 Auto vars:     Size  Location     Type
  f               4  128[BANK0 ] float 
  y               4  120[BANK0 ] float 
  x               4  116[BANK0 ] float 
  i               2  132[BANK0 ] unsigned int 
 Return value:  Size  Location     Type
                  4  100[BANK0 ] float 
 Registers used:
		wreg, status,2, status,0, tblptrl, tblptrh, tblptru, prodl, prodh, cstack
 Tracked objects:
		On entry : 
		On exit  : 
		Unchanged: 
 Data sizes:     COMRAM   BANK0   BANK1   BANK2   BANK3   BANK4   BANK5   BANK6   BANK7   BANK8   BANK9  BANK10  BANK11  BANK12  BANK13  BANK14  BANK15
      Params:         0       8       0       0       0       0       0       0       0       0       0       0       0       0       0       0       0
      Locals:         0      18       0       0       0       0       0       0       0       0       0       0       0       0       0       0       0
      Temps:          0       8       0       0       0       0       0       0       0       0       0       0       0       0       0       0       0
      Totals:         0      34       0       0       0       0       0       0       0       0       0       0       0       0       0       0       0
Total ram usage:       34 bytes
 Hardware stack levels used:    1
 Hardware stack levels required when called:    5
 This function calls:
		___fladd
		___fldiv
		___flge
		___flmul
		___flneg
		___xxtofl
 This function is called by:
		_cal_diff_hight_to_vol_h
		_cal_diff_hight_to_vol_v
 This function uses a non-reentrant model


 *************** function ___flneg *****************
 Defined at:
		line 15 in file "C:\Program Files (x86)\Microchip\xc8\v1.41\sources\common\flneg.c"
 Parameters:    Size  Location     Type
  f1              4   64[BANK0 ] float 
 Auto vars:     Size  Location     Type
		None
 Return value:  Size  Location     Type
                  4   64[BANK0 ] float 
 Registers used:
		wreg, status,2, status,0
 Tracked objects:
		On entry : 
		On exit  : 
		Unchanged: 
 Data sizes:     COMRAM   BANK0   BANK1   BANK2   BANK3   BANK4   BANK5   BANK6   BANK7   BANK8   BANK9  BANK10  BANK11  BANK12  BANK13  BANK14  BANK15
      Params:         0       4       0       0       0       0       0       0       0       0       0       0       0       0       0       0       0
      Locals:         0       0       0       0       0       0       0       0       0       0       0       0       0       0       0       0       0
      Temps:          0       0       0       0       0       0       0       0       0       0       0       0       0       0       0       0       0
      Totals:         0       4       0       0       0       0       0       0       0       0       0       0       0       0       0       0       0
Total ram usage:        4 bytes
 Hardware stack levels used:    1
 Hardware stack levels required when called:    4
 This function calls:
		Nothing
 This function is called by:
		_m_interp1_float_fast
		_cal_diff_hight_to_vol_v
 This function uses a non-reentrant model


 *************** function _cal_diff_hight_level *****************
 Defined at:
		line 470 in file "src/api/data.c"
 Parameters:    Size  Location     Type
		None
 Auto vars:     Size  Location     Type
  f1              4  112[BANK0 ] float 
  f2              4  108[BANK0 ] float 
 Return value:  Size  Location     Type
                  1    wreg      unsigned char 
 Registers used:
		wreg, status,2, status,0, prodl, prodh, cstack
 Tracked objects:
		On entry : 
		On exit  : 
		Unchanged: 
 Data sizes:     COMRAM   BANK0   BANK1   BANK2   BANK3   BANK4   BANK5   BANK6   BANK7   BANK8   BANK9  BANK10  BANK11  BANK12  BANK13  BANK14  BANK15
      Params:         0       0       0       0       0       0       0       0       0       0       0       0       0       0       0       0       0
      Locals:         0      16       0       0       0       0       0       0       0       0       0       0       0       0       0       0       0
      Temps:          0       0       0       0       0       0       0       0       0       0       0       0       0       0       0       0       0
      Totals:         0      16       0       0       0       0       0       0       0       0       0       0       0       0       0       0       0
Total ram usage:       16 bytes
 Hardware stack levels used:    1
 Hardware stack levels required when called:    5
 This function calls:
		___fladd
		___fldiv
		___flge
		___flmul
		___fltol
		___xxtofl
 This function is called by:
		_cal_diff_press
 This function uses a non-reentrant model


 *************** function ___flge *****************
 Defined at:
		line 4 in file "C:\Program Files (x86)\Microchip\xc8\v1.41\sources\common\flge.c"
 Parameters:    Size  Location     Type
  ff1             4   88[BANK0 ] unsigned char 
  ff2             4   92[BANK0 ] unsigned char 
 Auto vars:     Size  Location     Type
		None
 Return value:  Size  Location     Type
		None               void
 Registers used:
		wreg, status,2, status,0
 Tracked objects:
		On entry : 
		On exit  : 
		Unchanged: 
 Data sizes:     COMRAM   BANK0   BANK1   BANK2   BANK3   BANK4   BANK5   BANK6   BANK7   BANK8   BANK9  BANK10  BANK11  BANK12  BANK13  BANK14  BANK15
      Params:         0       8       0       0       0       0       0       0       0       0       0       0       0       0       0       0       0
      Locals:         0       0       0       0       0       0       0       0       0       0       0       0       0       0       0       0       0
      Temps:          0       4       0       0       0       0       0       0       0       0       0       0       0       0       0       0       0
      Totals:         0      12       0       0       0       0       0       0       0       0       0       0       0       0       0       0       0
Total ram usage:       12 bytes
 Hardware stack levels used:    1
 Hardware stack levels required when called:    4
 This function calls:
		Nothing
 This function is called by:
		_m_interp1_float_fast
		_cal_diff_hight_to_vol_h
		_cal_diff_hight_level
		_cal_diff_hight_to_vol_v
 This function uses a non-reentrant model


 *************** function ___fladd *****************
 Defined at:
		line 10 in file "C:\Program Files (x86)\Microchip\xc8\v1.41\sources\common\sprcadd.c"
 Parameters:    Size  Location     Type
  b               4   68[BANK0 ] unsigned char 
  a               4   72[BANK0 ] unsigned char 
 Auto vars:     Size  Location     Type
  grs             1   87[BANK0 ] unsigned char 
  bexp            1   86[BANK0 ] unsigned char 
  aexp            1   85[BANK0 ] unsigned char 
  signs           1   84[BANK0 ] unsigned char 
 Return value:  Size  Location     Type
                  4   68[BANK0 ] unsigned char 
 Registers used:
		wreg, status,2, status,0
 Tracked objects:
		On entry : 
		On exit  : 
		Unchanged: 
 Data sizes:     COMRAM   BANK0   BANK1   BANK2   BANK3   BANK4   BANK5   BANK6   BANK7   BANK8   BANK9  BANK10  BANK11  BANK12  BANK13  BANK14  BANK15
      Params:         0       8       0       0       0       0       0       0       0       0       0       0       0       0       0       0       0
      Locals:         0       4       0       0       0       0       0       0       0       0       0       0       0       0       0       0       0
      Temps:          0       8       0       0       0       0       0       0       0       0       0       0       0       0       0       0       0
      Totals:         0      20       0       0       0       0       0       0       0       0       0       0       0       0       0       0       0
Total ram usage:       20 bytes
 Hardware stack levels used:    1
 Hardware stack levels required when called:    4
 This function calls:
		Nothing
 This function is called by:
		_m_interp1_float_fast
		_cal_diff_hight_to_vol_h
		_cal_diff_hight_level
		_cal_diff_hight_to_vol_v
 This function uses a non-reentrant model


 *************** function _sample_all_power_on *****************
 Defined at:
		line 88 in file "src/api/sample.c"
 Parameters:    Size  Location     Type
		None
 Auto vars:     Size  Location     Type
		None
 Return value:  Size  Location     Type
                  1    wreg      void 
 Registers used:
		wreg, status,2, status,0
 Tracked objects:
		On entry : 
		On exit  : 
		Unchanged: 
 Data sizes:     COMRAM   BANK0   BANK1   BANK2   BANK3   BANK4   BANK5   BANK6   BANK7   BANK8   BANK9  BANK10  BANK11  BANK12  BANK13  BANK14  BANK15
      Params:         0       0       0       0       0       0       0       0       0       0       0       0       0       0       0       0       0
      Locals:         0       0       0       0       0       0       0       0       0       0       0       0       0       0       0       0       0
      Temps:          0       0       0       0       0       0       0       0       0       0       0       0       0       0       0       0       0
      Totals:         0       0       0       0       0       0       0       0       0       0       0       0       0       0       0       0       0
Total ram usage:        0 bytes
 Hardware stack levels used:    1
 Hardware stack levels required when called:    4
 This function calls:
		Nothing
 This function is called by:
		_sample_function_enable_fi_in_rtc
 This function uses a non-reentrant model


 *************** function _sample_all_power_off *****************
 Defined at:
		line 97 in file "src/api/sample.c"
 Parameters:    Size  Location     Type
		None
 Auto vars:     Size  Location     Type
		None
 Return value:  Size  Location     Type
                  1    wreg      void 
 Registers used:
		wreg, status,2, status,0
 Tracked objects:
		On entry : 
		On exit  : 
		Unchanged: 
 Data sizes:     COMRAM   BANK0   BANK1   BANK2   BANK3   BANK4   BANK5   BANK6   BANK7   BANK8   BANK9  BANK10  BANK11  BANK12  BANK13  BANK14  BANK15
      Params:         0       0       0       0       0       0       0       0       0       0       0       0       0       0       0       0       0
      Locals:         0       0       0       0       0       0       0       0       0       0       0       0       0       0       0       0       0
      Temps:          0       0       0       0       0       0       0       0       0       0       0       0       0       0       0       0       0
      Totals:         0       0       0       0       0       0       0       0       0       0       0       0       0       0       0       0       0
Total ram usage:        0 bytes
 Hardware stack levels used:    1
 Hardware stack levels required when called:    4
 This function calls:
		Nothing
 This function is called by:
		_sample_function_enable_fi_in_rtc
 This function uses a non-reentrant model


 *************** function _data_init_all *****************
 Defined at:
		line 438 in file "src/api/data.c"
 Parameters:    Size  Location     Type
		None
 Auto vars:     Size  Location     Type
		None
 Return value:  Size  Location     Type
                  1    wreg      void 
 Registers used:
		wreg, fsr0l, fsr0h, fsr2l, fsr2h, status,2, status,0, pclath, tosl, tblptrl, tblptrh, tblptru, prodl, prodh, cstack
 Tracked objects:
		On entry : 
		On exit  : 
		Unchanged: 
 Data sizes:     COMRAM   BANK0   BANK1   BANK2   BANK3   BANK4   BANK5   BANK6   BANK7   BANK8   BANK9  BANK10  BANK11  BANK12  BANK13  BANK14  BANK15
      Params:         0       0       0       0       0       0       0       0       0       0       0       0       0       0       0       0       0
      Locals:         0       0       0       0       0       0       0       0       0       0       0       0       0       0       0       0       0
      Temps:          0       0       0       0       0       0       0       0       0       0       0       0       0       0       0       0       0
      Totals:         0       0       0       0       0       0       0       0       0       0       0       0       0       0       0       0       0
Total ram usage:        0 bytes
 Hardware stack levels used:    1
 Hardware stack levels required when called:   10
 This function calls:
		_calib_data_init_diff_pr
		_calib_data_init_pr
		_data_sys_init
 This function is called by:
		_main
 This function uses a non-reentrant model


 *************** function _data_sys_init *****************
 Defined at:
		line 163 in file "src/api/data.c"
 Parameters:    Size  Location     Type
		None
 Auto vars:     Size  Location     Type
  buf             2  131[BANK0 ] PTR unsigned char 
		 -> stSysData(240), 
  stp             2  129[BANK0 ] PTR struct .
		 -> stSysData(240), 
  t16             2  126[BANK0 ] unsigned int 
  ret             1  128[BANK0 ] unsigned char 
 Return value:  Size  Location     Type
                  1    wreg      unsigned char 
 Registers used:
		wreg, fsr0l, fsr0h, fsr2l, fsr2h, status,2, status,0, tblptrl, tblptrh, tblptru, prodl, prodh, cstack
 Tracked objects:
		On entry : 
		On exit  : 
		Unchanged: 
 Data sizes:     COMRAM   BANK0   BANK1   BANK2   BANK3   BANK4   BANK5   BANK6   BANK7   BANK8   BANK9  BANK10  BANK11  BANK12  BANK13  BANK14  BANK15
      Params:         0       0       0       0       0       0       0       0       0       0       0       0       0       0       0       0       0
      Locals:         0       7       0       0       0       0       0       0       0       0       0       0       0       0       0       0       0
      Temps:          0       0       0       0       0       0       0       0       0       0       0       0       0       0       0       0       0
      Totals:         0       7       0       0       0       0       0       0       0       0       0       0       0       0       0       0       0
Total ram usage:        7 bytes
 Hardware stack levels used:    1
 Hardware stack levels required when called:    7
 This function calls:
		_crc_append
		_crc_verify
		_data_sys_cal_v1
		_data_sys_cal_v2
		_m_flash_read
		_m_flash_write
		_m_mem_cpy_len
 This function is called by:
		_data_init_all
 This function uses a non-reentrant model


 *************** function _m_flash_write *****************
 Defined at:
		line 63 in file "src/driver/m_flash.c"
 Parameters:    Size  Location     Type
  addr            4   14[BANK0 ] unsigned long 
  buf             2   18[BANK0 ] PTR unsigned char 
		 -> m_flash_test@tmp(16), stSysData(240), 
  len             2   20[BANK0 ] unsigned int 
 Auto vars:     Size  Location     Type
  pageAddr        4   26[BANK0 ] unsigned long 
  t16             2   33[BANK0 ] unsigned int 
  tmpBuf          2   31[BANK0 ] PTR unsigned char 
		 -> globleBuffer(256), 
  j               1   30[BANK0 ] unsigned char 
  i               1   25[BANK0 ] unsigned char 
  writeTimes      1   24[BANK0 ] unsigned char 
 Return value:  Size  Location     Type
                  2   14[BANK0 ] unsigned int 
 Registers used:
		wreg, fsr0l, fsr0h, fsr2l, fsr2h, status,2, status,0, tblptrl, tblptrh, tblptru, cstack
 Tracked objects:
		On entry : 
		On exit  : 
		Unchanged: 
 Data sizes:     COMRAM   BANK0   BANK1   BANK2   BANK3   BANK4   BANK5   BANK6   BANK7   BANK8   BANK9  BANK10  BANK11  BANK12  BANK13  BANK14  BANK15
      Params:         0       8       0       0       0       0       0       0       0       0       0       0       0       0       0       0       0
      Locals:         0      11       0       0       0       0       0       0       0       0       0       0       0       0       0       0       0
      Temps:          0       2       0       0       0       0       0       0       0       0       0       0       0       0       0       0       0
      Totals:         0      21       0       0       0       0       0       0       0       0       0       0       0       0       0       0       0
Total ram usage:       21 bytes
 Hardware stack levels used:    1
 Hardware stack levels required when called:    6
 This function calls:
		_m_flash_erase
		_m_flash_read
		_m_flash_unlock
		_m_mem_cpy_len
 This function is called by:
		_data_sys_init
		___sys_data_save_write_flash
		_data_sys_save
		_m_flash_test
 This function uses a non-reentrant model


 *************** function _m_flash_read *****************
 Defined at:
		line 46 in file "src/driver/m_flash.c"
 Parameters:    Size  Location     Type
  addr            4    0[BANK0 ] unsigned long 
  buf             2    4[BANK0 ] PTR unsigned char 
		 -> m_flash_test@tmp(16), globleBuffer(256), stSysData(240), 
  len             2    6[BANK0 ] unsigned int 
 Auto vars:     Size  Location     Type
  t32             4   10[BANK0 ] unsigned long 
  i               2    8[BANK0 ] unsigned int 
 Return value:  Size  Location     Type
                  2    0[BANK0 ] unsigned int 
 Registers used:
		wreg, fsr2l, fsr2h, status,2, status,0
 Tracked objects:
		On entry : 
		On exit  : 
		Unchanged: 
 Data sizes:     COMRAM   BANK0   BANK1   BANK2   BANK3   BANK4   BANK5   BANK6   BANK7   BANK8   BANK9  BANK10  BANK11  BANK12  BANK13  BANK14  BANK15
      Params:         0       8       0       0       0       0       0       0       0       0       0       0       0       0       0       0       0
      Locals:         0       6       0       0       0       0       0       0       0       0       0       0       0       0       0       0       0
      Temps:          0       0       0       0       0       0       0       0       0       0       0       0       0       0       0       0       0
      Totals:         0      14       0       0       0       0       0       0       0       0       0       0       0       0       0       0       0
Total ram usage:       14 bytes
 Hardware stack levels used:    1
 Hardware stack levels required when called:    4
 This function calls:
		Nothing
 This function is called by:
		_data_sys_init
		___sys_data_save_write_flash
		_m_flash_write
		_data_sys_save
		_m_flash_test
 This function uses a non-reentrant model


 *************** function _m_flash_erase *****************
 Defined at:
		line 30 in file "src/driver/m_flash.c"
 Parameters:    Size  Location     Type
  addr            4    0[BANK0 ] unsigned long 
 Auto vars:     Size  Location     Type
  t32             4    4[BANK0 ] unsigned long 
 Return value:  Size  Location     Type
                  1    wreg      void 
 Registers used:
		wreg, status,2, status,0, cstack
 Tracked objects:
		On entry : 
		On exit  : 
		Unchanged: 
 Data sizes:     COMRAM   BANK0   BANK1   BANK2   BANK3   BANK4   BANK5   BANK6   BANK7   BANK8   BANK9  BANK10  BANK11  BANK12  BANK13  BANK14  BANK15
      Params:         0       4       0       0       0       0       0       0       0       0       0       0       0       0       0       0       0
      Locals:         0       4       0       0       0       0       0       0       0       0       0       0       0       0       0       0       0
      Temps:          0       0       0       0       0       0       0       0       0       0       0       0       0       0       0       0       0
      Totals:         0       8       0       0       0       0       0       0       0       0       0       0       0       0       0       0       0
Total ram usage:        8 bytes
 Hardware stack levels used:    1
 Hardware stack levels required when called:    5
 This function calls:
		_m_flash_unlock
 This function is called by:
		_m_flash_write
 This function uses a non-reentrant model


 *************** function _m_flash_unlock *****************
 Defined at:
		line 9 in file "src/driver/m_flash.c"
 Parameters:    Size  Location     Type
		None
 Auto vars:     Size  Location     Type
  oldGIE          1   31[COMRAM] volatile unsigned char 
 Return value:  Size  Location     Type
                  1    wreg      void 
 Registers used:
		None
 Tracked objects:
		On entry : 
		On exit  : 
		Unchanged: 
 Data sizes:     COMRAM   BANK0   BANK1   BANK2   BANK3   BANK4   BANK5   BANK6   BANK7   BANK8   BANK9  BANK10  BANK11  BANK12  BANK13  BANK14  BANK15
      Params:         0       0       0       0       0       0       0       0       0       0       0       0       0       0       0       0       0
      Locals:         1       0       0       0       0       0       0       0       0       0       0       0       0       0       0       0       0
      Temps:          0       0       0       0       0       0       0       0       0       0       0       0       0       0       0       0       0
      Totals:         1       0       0       0       0       0       0       0       0       0       0       0       0       0       0       0       0
Total ram usage:        1 bytes
 Hardware stack levels used:    1
 Hardware stack levels required when called:    4
 This function calls:
		Nothing
 This function is called by:
		_m_flash_erase
		_m_flash_write
 This function uses a non-reentrant model


 *************** function _data_sys_cal_v2 *****************
 Defined at:
		line 153 in file "src/api/data.c"
 Parameters:    Size  Location     Type
  stp             2   98[BANK0 ] PTR struct .
		 -> stSysData(240), 
 Auto vars:     Size  Location     Type
  d               4  114[BANK0 ] float 
  f               4  110[BANK0 ] float 
 Return value:  Size  Location     Type
                  4   98[BANK0 ] unsigned long 
 Registers used:
		wreg, fsr2l, fsr2h, status,2, status,0, prodl, prodh, cstack
 Tracked objects:
		On entry : 
		On exit  : 
		Unchanged: 
 Data sizes:     COMRAM   BANK0   BANK1   BANK2   BANK3   BANK4   BANK5   BANK6   BANK7   BANK8   BANK9  BANK10  BANK11  BANK12  BANK13  BANK14  BANK15
      Params:         0       4       0       0       0       0       0       0       0       0       0       0       0       0       0       0       0
      Locals:         0      16       0       0       0       0       0       0       0       0       0       0       0       0       0       0       0
      Temps:          0       0       0       0       0       0       0       0       0       0       0       0       0       0       0       0       0
      Totals:         0      20       0       0       0       0       0       0       0       0       0       0       0       0       0       0       0
Total ram usage:       20 bytes
 Hardware stack levels used:    1
 Hardware stack levels required when called:    5
 This function calls:
		___fldiv
		___flmul
		___fltol
		___xxtofl
 This function is called by:
		_data_sys_init
		___sys_data_save_write_flash
 This function uses a non-reentrant model


 *************** function _data_sys_cal_v1 *****************
 Defined at:
		line 141 in file "src/api/data.c"
 Parameters:    Size  Location     Type
  stp             2   98[BANK0 ] PTR struct .
		 -> stSysData(240), 
 Auto vars:     Size  Location     Type
  r               4  122[BANK0 ] float 
  f               4  118[BANK0 ] float 
  h               4  114[BANK0 ] float 
 Return value:  Size  Location     Type
                  4   98[BANK0 ] unsigned long 
 Registers used:
		wreg, fsr2l, fsr2h, status,2, status,0, prodl, prodh, cstack
 Tracked objects:
		On entry : 
		On exit  : 
		Unchanged: 
 Data sizes:     COMRAM   BANK0   BANK1   BANK2   BANK3   BANK4   BANK5   BANK6   BANK7   BANK8   BANK9  BANK10  BANK11  BANK12  BANK13  BANK14  BANK15
      Params:         0       4       0       0       0       0       0       0       0       0       0       0       0       0       0       0       0
      Locals:         0      24       0       0       0       0       0       0       0       0       0       0       0       0       0       0       0
      Temps:          0       0       0       0       0       0       0       0       0       0       0       0       0       0       0       0       0
      Totals:         0      28       0       0       0       0       0       0       0       0       0       0       0       0       0       0       0
Total ram usage:       28 bytes
 Hardware stack levels used:    1
 Hardware stack levels required when called:    5
 This function calls:
		___fldiv
		___flmul
		___fltol
		___xxtofl
 This function is called by:
		_data_sys_init
		___sys_data_save_write_flash
 This function uses a non-reentrant model


 *************** function ___xxtofl *****************
 Defined at:
		line 10 in file "C:\Program Files (x86)\Microchip\xc8\v1.41\sources\common\xxtofl.c"
 Parameters:    Size  Location     Type
  sign            1    wreg     unsigned char 
  val             4    0[BANK0 ] long 
 Auto vars:     Size  Location     Type
  sign            1    8[BANK0 ] unsigned char 
  arg             4   10[BANK0 ] unsigned long 
  exp             1    9[BANK0 ] unsigned char 
 Return value:  Size  Location     Type
                  4    0[BANK0 ] unsigned char 
 Registers used:
		wreg, status,2, status,0
 Tracked objects:
		On entry : 
		On exit  : 
		Unchanged: 
 Data sizes:     COMRAM   BANK0   BANK1   BANK2   BANK3   BANK4   BANK5   BANK6   BANK7   BANK8   BANK9  BANK10  BANK11  BANK12  BANK13  BANK14  BANK15
      Params:         0       4       0       0       0       0       0       0       0       0       0       0       0       0       0       0       0
      Locals:         0       6       0       0       0       0       0       0       0       0       0       0       0       0       0       0       0
      Temps:          0       4       0       0       0       0       0       0       0       0       0       0       0       0       0       0       0
      Totals:         0      14       0       0       0       0       0       0       0       0       0       0       0       0       0       0       0
Total ram usage:       14 bytes
 Hardware stack levels used:    1
 Hardware stack levels required when called:    4
 This function calls:
		Nothing
 This function is called by:
		_data_sys_cal_v1
		_data_sys_cal_v2
		_m_interp1_float_fast
		_cal_diff_hight_to_vol_h
		_cal_diff_hight_level
		_cal_diff_hight_to_vol_v
		_cal_diff_p_to_h
 This function uses a non-reentrant model


 *************** function ___fltol *****************
 Defined at:
		line 43 in file "C:\Program Files (x86)\Microchip\xc8\v1.41\sources\common\fltol.c"
 Parameters:    Size  Location     Type
  f1              4   88[BANK0 ] unsigned char 
 Auto vars:     Size  Location     Type
  exp1            1   97[BANK0 ] unsigned char 
  sign1           1   96[BANK0 ] unsigned char 
 Return value:  Size  Location     Type
                  4   88[BANK0 ] long 
 Registers used:
		wreg, status,2, status,0
 Tracked objects:
		On entry : 
		On exit  : 
		Unchanged: 
 Data sizes:     COMRAM   BANK0   BANK1   BANK2   BANK3   BANK4   BANK5   BANK6   BANK7   BANK8   BANK9  BANK10  BANK11  BANK12  BANK13  BANK14  BANK15
      Params:         0       4       0       0       0       0       0       0       0       0       0       0       0       0       0       0       0
      Locals:         0       2       0       0       0       0       0       0       0       0       0       0       0       0       0       0       0
      Temps:          0       4       0       0       0       0       0       0       0       0       0       0       0       0       0       0       0
      Totals:         0      10       0       0       0       0       0       0       0       0       0       0       0       0       0       0       0
Total ram usage:       10 bytes
 Hardware stack levels used:    1
 Hardware stack levels required when called:    4
 This function calls:
		Nothing
 This function is called by:
		_data_sys_cal_v1
		_data_sys_cal_v2
		_cal_diff_hight_to_vol_h
		_cal_diff_hight_level
		_cal_diff_hight_to_vol_v
		_cal_diff_p_to_h
 This function uses a non-reentrant model


 *************** function ___flmul *****************
 Defined at:
		line 8 in file "C:\Program Files (x86)\Microchip\xc8\v1.41\sources\common\sprcmul.c"
 Parameters:    Size  Location     Type
  b               4   14[BANK0 ] long 
  a               4   18[BANK0 ] long 
 Auto vars:     Size  Location     Type
  prod            4   33[BANK0 ] struct .
  grs             4   28[BANK0 ] unsigned long 
  temp            2   37[BANK0 ] struct .
  bexp            1   32[BANK0 ] unsigned char 
  aexp            1   27[BANK0 ] unsigned char 
  sign            1   26[BANK0 ] unsigned char 
 Return value:  Size  Location     Type
                  4   14[BANK0 ] unsigned char 
 Registers used:
		wreg, status,2, status,0, prodl, prodh
 Tracked objects:
		On entry : 
		On exit  : 
		Unchanged: 
 Data sizes:     COMRAM   BANK0   BANK1   BANK2   BANK3   BANK4   BANK5   BANK6   BANK7   BANK8   BANK9  BANK10  BANK11  BANK12  BANK13  BANK14  BANK15
      Params:         0       8       0       0       0       0       0       0       0       0       0       0       0       0       0       0       0
      Locals:         0      13       0       0       0       0       0       0       0       0       0       0       0       0       0       0       0
      Temps:          0       4       0       0       0       0       0       0       0       0       0       0       0       0       0       0       0
      Totals:         0      25       0       0       0       0       0       0       0       0       0       0       0       0       0       0       0
Total ram usage:       25 bytes
 Hardware stack levels used:    1
 Hardware stack levels required when called:    4
 This function calls:
		Nothing
 This function is called by:
		_data_sys_cal_v1
		_data_sys_cal_v2
		_m_interp1_float_fast
		_cal_diff_hight_to_vol_h
		_cal_diff_hight_level
		_cal_diff_hight_to_vol_v
		_cal_diff_p_to_h
 This function uses a non-reentrant model


 *************** function ___fldiv *****************
 Defined at:
		line 11 in file "C:\Program Files (x86)\Microchip\xc8\v1.41\sources\common\sprcdiv.c"
 Parameters:    Size  Location     Type
  b               4   39[BANK0 ] unsigned char 
  a               4   43[BANK0 ] unsigned char 
 Auto vars:     Size  Location     Type
  grs             4   58[BANK0 ] unsigned long 
  rem             4   52[BANK0 ] unsigned long 
  new_exp         2   56[BANK0 ] int 
  aexp            1   63[BANK0 ] unsigned char 
  bexp            1   62[BANK0 ] unsigned char 
  sign            1   51[BANK0 ] unsigned char 
 Return value:  Size  Location     Type
                  4   39[BANK0 ] unsigned char 
 Registers used:
		wreg, status,2, status,0
 Tracked objects:
		On entry : 
		On exit  : 
		Unchanged: 
 Data sizes:     COMRAM   BANK0   BANK1   BANK2   BANK3   BANK4   BANK5   BANK6   BANK7   BANK8   BANK9  BANK10  BANK11  BANK12  BANK13  BANK14  BANK15
      Params:         0       8       0       0       0       0       0       0       0       0       0       0       0       0       0       0       0
      Locals:         0      13       0       0       0       0       0       0       0       0       0       0       0       0       0       0       0
      Temps:          0       4       0       0       0       0       0       0       0       0       0       0       0       0       0       0       0
      Totals:         0      25       0       0       0       0       0       0       0       0       0       0       0       0       0       0       0
Total ram usage:       25 bytes
 Hardware stack levels used:    1
 Hardware stack levels required when called:    4
 This function calls:
		Nothing
 This function is called by:
		_data_sys_cal_v1
		_data_sys_cal_v2
		_m_interp1_float_fast
		_cal_diff_hight_to_vol_h
		_cal_diff_hight_level
		_cal_diff_hight_to_vol_v
		_cal_diff_p_to_h
 This function uses a non-reentrant model


 *************** function _calib_data_init_pr *****************
 Defined at:
		line 283 in file "src/api/data.c"
 Parameters:    Size  Location     Type
		None
 Auto vars:     Size  Location     Type
  buf             2   25[BANK0 ] PTR unsigned char 
		 -> prCalibTabDef(162), 
  t16             2   23[BANK0 ] unsigned int 
  ret             1   22[BANK0 ] unsigned char 
 Return value:  Size  Location     Type
                  1    wreg      unsigned char 
 Registers used:
		wreg, fsr0l, fsr0h, fsr2l, fsr2h, status,2, status,0, pclath, tosl, tblptrl, tblptrh, tblptru, prodl, prodh, cstack
 Tracked objects:
		On entry : 
		On exit  : 
		Unchanged: 
 Data sizes:     COMRAM   BANK0   BANK1   BANK2   BANK3   BANK4   BANK5   BANK6   BANK7   BANK8   BANK9  BANK10  BANK11  BANK12  BANK13  BANK14  BANK15
      Params:         0       0       0       0       0       0       0       0       0       0       0       0       0       0       0       0       0
      Locals:         0       5       0       0       0       0       0       0       0       0       0       0       0       0       0       0       0
      Temps:          0       0       0       0       0       0       0       0       0       0       0       0       0       0       0       0       0
      Totals:         0       5       0       0       0       0       0       0       0       0       0       0       0       0       0       0       0
Total ram usage:        5 bytes
 Hardware stack levels used:    1
 Hardware stack levels required when called:    9
 This function calls:
		_at24c02_init
		_at24c02_read_n_byte
		_at24c02_write_n_byte
		_calib_data_set_default_pr
		_crc_append
		_crc_verify
 This function is called by:
		_data_init_all
 This function uses a non-reentrant model


 *************** function _calib_data_set_default_pr *****************
 Defined at:
		line 242 in file "src/api/data.c"
 Parameters:    Size  Location     Type
		None
 Auto vars:     Size  Location     Type
  j               1   15[BANK0 ] unsigned char 
  i               1   14[BANK0 ] unsigned char 
 Return value:  Size  Location     Type
                  1    wreg      void 
 Registers used:
		wreg, fsr2l, fsr2h, status,2, status,0, prodl, prodh, cstack
 Tracked objects:
		On entry : 
		On exit  : 
		Unchanged: 
 Data sizes:     COMRAM   BANK0   BANK1   BANK2   BANK3   BANK4   BANK5   BANK6   BANK7   BANK8   BANK9  BANK10  BANK11  BANK12  BANK13  BANK14  BANK15
      Params:         0       0       0       0       0       0       0       0       0       0       0       0       0       0       0       0       0
      Locals:         0       2       0       0       0       0       0       0       0       0       0       0       0       0       0       0       0
      Temps:          0       6       0       0       0       0       0       0       0       0       0       0       0       0       0       0       0
      Totals:         0       8       0       0       0       0       0       0       0       0       0       0       0       0       0       0       0
Total ram usage:        8 bytes
 Hardware stack levels used:    1
 Hardware stack levels required when called:    5
 This function calls:
		___wmul
 This function is called by:
		_calib_data_init_pr
 This function uses a non-reentrant model


 *************** function _calib_data_init_diff_pr *****************
 Defined at:
		line 257 in file "src/api/data.c"
 Parameters:    Size  Location     Type
		None
 Auto vars:     Size  Location     Type
  buf             2   25[BANK0 ] PTR unsigned char 
		 -> diff_prCalibTabDef(162), 
  t16             2   23[BANK0 ] unsigned int 
  ret             1   22[BANK0 ] unsigned char 
 Return value:  Size  Location     Type
                  1    wreg      unsigned char 
 Registers used:
		wreg, fsr0l, fsr0h, fsr2l, fsr2h, status,2, status,0, pclath, tosl, tblptrl, tblptrh, tblptru, prodl, prodh, cstack
 Tracked objects:
		On entry : 
		On exit  : 
		Unchanged: 
 Data sizes:     COMRAM   BANK0   BANK1   BANK2   BANK3   BANK4   BANK5   BANK6   BANK7   BANK8   BANK9  BANK10  BANK11  BANK12  BANK13  BANK14  BANK15
      Params:         0       0       0       0       0       0       0       0       0       0       0       0       0       0       0       0       0
      Locals:         0       5       0       0       0       0       0       0       0       0       0       0       0       0       0       0       0
      Temps:          0       0       0       0       0       0       0       0       0       0       0       0       0       0       0       0       0
      Totals:         0       5       0       0       0       0       0       0       0       0       0       0       0       0       0       0       0
Total ram usage:        5 bytes
 Hardware stack levels used:    1
 Hardware stack levels required when called:    9
 This function calls:
		_at24c02_init
		_at24c02_read_n_byte
		_at24c02_write_n_byte
		_calib_data_set_default_diff_pr
		_crc_append
		_crc_verify
 This function is called by:
		_data_init_all
 This function uses a non-reentrant model


 *************** function _crc_verify *****************
 Defined at:
		line 76 in file "src/depend/crc16.c"
 Parameters:    Size  Location     Type
  message         2   12[BANK0 ] PTR unsigned char 
		 -> stSysData(240), prCalibTabDef(162), diff_prCalibTabDef(162), 
  n               2   14[BANK0 ] unsigned int 
 Auto vars:     Size  Location     Type
  expected        2   20[BANK0 ] unsigned int 
  crccal          2   18[BANK0 ] unsigned int 
 Return value:  Size  Location     Type
                  1    wreg      unsigned char 
 Registers used:
		wreg, fsr0l, fsr0h, fsr2l, fsr2h, status,2, status,0, tblptrl, tblptrh, tblptru, cstack
 Tracked objects:
		On entry : 
		On exit  : 
		Unchanged: 
 Data sizes:     COMRAM   BANK0   BANK1   BANK2   BANK3   BANK4   BANK5   BANK6   BANK7   BANK8   BANK9  BANK10  BANK11  BANK12  BANK13  BANK14  BANK15
      Params:         0       4       0       0       0       0       0       0       0       0       0       0       0       0       0       0       0
      Locals:         0       4       0       0       0       0       0       0       0       0       0       0       0       0       0       0       0
      Temps:          0       2       0       0       0       0       0       0       0       0       0       0       0       0       0       0       0
      Totals:         0      10       0       0       0       0       0       0       0       0       0       0       0       0       0       0       0
Total ram usage:       10 bytes
 Hardware stack levels used:    1
 Hardware stack levels required when called:    5
 This function calls:
		_crc_sum
		_m_mem_cpy_len
 This function is called by:
		_data_sys_init
		_calib_data_init_diff_pr
		_calib_data_init_pr
		___sys_data_save_write_flash
		_data_sys_save
 This function uses a non-reentrant model


 *************** function _m_mem_cpy_len *****************
 Defined at:
		line 41 in file "src/depend/m_string.c"
 Parameters:    Size  Location     Type
  d               2    0[BANK0 ] PTR unsigned char 
		 -> m_flash_test@tmp(16), globleBuffer(256), crc_verify@expected(2), stSysData(240), 
  s               2    2[BANK0 ] PTR unsigned char 
		 -> flashTestbuf(65), m_flash_test@tmp(16), stSysData(240), defultSystemData(240), 
		 -> prCalibTabDef(162), diff_prCalibTabDef(162), 
  len             2    4[BANK0 ] unsigned int 
 Auto vars:     Size  Location     Type
		None
 Return value:  Size  Location     Type
                  1    wreg      void 
 Registers used:
		wreg, fsr0l, fsr0h, fsr2l, fsr2h, status,2, status,0, tblptrl, tblptrh, tblptru
 Tracked objects:
		On entry : 
		On exit  : 
		Unchanged: 
 Data sizes:     COMRAM   BANK0   BANK1   BANK2   BANK3   BANK4   BANK5   BANK6   BANK7   BANK8   BANK9  BANK10  BANK11  BANK12  BANK13  BANK14  BANK15
      Params:         0       6       0       0       0       0       0       0       0       0       0       0       0       0       0       0       0
      Locals:         0       0       0       0       0       0       0       0       0       0       0       0       0       0       0       0       0
      Temps:          0       0       0       0       0       0       0       0       0       0       0       0       0       0       0       0       0
      Totals:         0       6       0       0       0       0       0       0       0       0       0       0       0       0       0       0       0
Total ram usage:        6 bytes
 Hardware stack levels used:    1
 Hardware stack levels required when called:    4
 This function calls:
		Nothing
 This function is called by:
		_data_sys_init
		_crc_verify
		_m_flash_write
		_data_sys_save
		_m_flash_test
 This function uses a non-reentrant model


 *************** function _crc_append *****************
 Defined at:
		line 86 in file "src/depend/crc16.c"
 Parameters:    Size  Location     Type
  message         2   12[BANK0 ] PTR unsigned char 
		 -> stSysData(240), prCalibTabDef(162), diff_prCalibTabDef(162), 
  n               2   14[BANK0 ] unsigned int 
 Auto vars:     Size  Location     Type
  crc             2   18[BANK0 ] unsigned int 
 Return value:  Size  Location     Type
                  1    wreg      void 
 Registers used:
		wreg, fsr2l, fsr2h, status,2, status,0, tblptrl, tblptrh, tblptru, cstack
 Tracked objects:
		On entry : 
		On exit  : 
		Unchanged: 
 Data sizes:     COMRAM   BANK0   BANK1   BANK2   BANK3   BANK4   BANK5   BANK6   BANK7   BANK8   BANK9  BANK10  BANK11  BANK12  BANK13  BANK14  BANK15
      Params:         0       4       0       0       0       0       0       0       0       0       0       0       0       0       0       0       0
      Locals:         0       2       0       0       0       0       0       0       0       0       0       0       0       0       0       0       0
      Temps:          0       2       0       0       0       0       0       0       0       0       0       0       0       0       0       0       0
      Totals:         0       8       0       0       0       0       0       0       0       0       0       0       0       0       0       0       0
Total ram usage:        8 bytes
 Hardware stack levels used:    1
 Hardware stack levels required when called:    5
 This function calls:
		_crc_sum
 This function is called by:
		_data_sys_init
		_calib_data_init_diff_pr
		_calib_data_init_pr
		___sys_data_save_write_flash
		___set_short_diff_calib
		___set_short_pr_calib
		_data_sys_save
 This function uses a non-reentrant model


 *************** function _crc_sum *****************
 Defined at:
		line 61 in file "src/depend/crc16.c"
 Parameters:    Size  Location     Type
  puchMsg         2    0[BANK0 ] PTR unsigned char 
		 -> stSysData(240), prCalibTabDef(162), diff_prCalibTabDef(162), 
  usDataLen       2    2[BANK0 ] unsigned int 
 Auto vars:     Size  Location     Type
  uIndex          2    8[BANK0 ] unsigned int 
  len             2    6[BANK0 ] unsigned int 
  uchCRCLo        1   11[BANK0 ] unsigned char 
  uchCRCHi        1   10[BANK0 ] unsigned char 
 Return value:  Size  Location     Type
                  2    0[BANK0 ] unsigned int 
 Registers used:
		wreg, fsr2l, fsr2h, status,2, status,0, tblptrl, tblptrh, tblptru
 Tracked objects:
		On entry : 
		On exit  : 
		Unchanged: 
 Data sizes:     COMRAM   BANK0   BANK1   BANK2   BANK3   BANK4   BANK5   BANK6   BANK7   BANK8   BANK9  BANK10  BANK11  BANK12  BANK13  BANK14  BANK15
      Params:         0       4       0       0       0       0       0       0       0       0       0       0       0       0       0       0       0
      Locals:         0       6       0       0       0       0       0       0       0       0       0       0       0       0       0       0       0
      Temps:          0       2       0       0       0       0       0       0       0       0       0       0       0       0       0       0       0
      Totals:         0      12       0       0       0       0       0       0       0       0       0       0       0       0       0       0       0
Total ram usage:       12 bytes
 Hardware stack levels used:    1
 Hardware stack levels required when called:    4
 This function calls:
		Nothing
 This function is called by:
		_crc_verify
		_crc_append
 This function uses a non-reentrant model


 *************** function _calib_data_set_default_diff_pr *****************
 Defined at:
		line 227 in file "src/api/data.c"
 Parameters:    Size  Location     Type
		None
 Auto vars:     Size  Location     Type
  i               1   15[BANK0 ] unsigned char 
  j               1   14[BANK0 ] unsigned char 
 Return value:  Size  Location     Type
                  1    wreg      void 
 Registers used:
		wreg, fsr2l, fsr2h, status,2, status,0, prodl, prodh, cstack
 Tracked objects:
		On entry : 
		On exit  : 
		Unchanged: 
 Data sizes:     COMRAM   BANK0   BANK1   BANK2   BANK3   BANK4   BANK5   BANK6   BANK7   BANK8   BANK9  BANK10  BANK11  BANK12  BANK13  BANK14  BANK15
      Params:         0       0       0       0       0       0       0       0       0       0       0       0       0       0       0       0       0
      Locals:         0       2       0       0       0       0       0       0       0       0       0       0       0       0       0       0       0
      Temps:          0       6       0       0       0       0       0       0       0       0       0       0       0       0       0       0       0
      Totals:         0       8       0       0       0       0       0       0       0       0       0       0       0       0       0       0       0
Total ram usage:        8 bytes
 Hardware stack levels used:    1
 Hardware stack levels required when called:    5
 This function calls:
		___wmul
 This function is called by:
		_calib_data_init_diff_pr
 This function uses a non-reentrant model


 *************** function ___wmul *****************
 Defined at:
		line 15 in file "C:\Program Files (x86)\Microchip\xc8\v1.41\sources\common\Umul16.c"
 Parameters:    Size  Location     Type
  multiplier      2    2[BANK0 ] unsigned int 
  multiplicand    2    4[BANK0 ] unsigned int 
 Auto vars:     Size  Location     Type
  product         2    6[BANK0 ] unsigned int 
 Return value:  Size  Location     Type
                  2    2[BANK0 ] unsigned int 
 Registers used:
		wreg, status,2, status,0, prodl, prodh
 Tracked objects:
		On entry : 
		On exit  : 
		Unchanged: 
 Data sizes:     COMRAM   BANK0   BANK1   BANK2   BANK3   BANK4   BANK5   BANK6   BANK7   BANK8   BANK9  BANK10  BANK11  BANK12  BANK13  BANK14  BANK15
      Params:         0       4       0       0       0       0       0       0       0       0       0       0       0       0       0       0       0
      Locals:         0       2       0       0       0       0       0       0       0       0       0       0       0       0       0       0       0
      Temps:          0       0       0       0       0       0       0       0       0       0       0       0       0       0       0       0       0
      Totals:         0       6       0       0       0       0       0       0       0       0       0       0       0       0       0       0       0
Total ram usage:        6 bytes
 Hardware stack levels used:    1
 Hardware stack levels required when called:    4
 This function calls:
		Nothing
 This function is called by:
		_calib_data_set_default_diff_pr
		_calib_data_set_default_pr
		_key_adj_value_fixed
 This function uses a non-reentrant model


 *************** function _at24c02_write_n_byte *****************
 Defined at:
		line 70 in file "src/driver/ex_eeprom.c"
 Parameters:    Size  Location     Type
  pAt24c02        2    6[BANK0 ] PTR struct .
		 -> at24c02Ch0(11), at24c02Ch1(11), NULL(0), 
  addr            1    8[BANK0 ] unsigned char 
  buf             2    9[BANK0 ] PTR unsigned char 
		 -> prCalibTabDef(162), diff_prCalibTabDef(162), 
  len             2   11[BANK0 ] unsigned int 
 Auto vars:     Size  Location     Type
  i               2   13[BANK0 ] unsigned int 
 Return value:  Size  Location     Type
                  1    wreg      void 
 Registers used:
		wreg, fsr2l, fsr2h, status,2, status,0, pclath, tosl, cstack
 Tracked objects:
		On entry : 
		On exit  : 
		Unchanged: 
 Data sizes:     COMRAM   BANK0   BANK1   BANK2   BANK3   BANK4   BANK5   BANK6   BANK7   BANK8   BANK9  BANK10  BANK11  BANK12  BANK13  BANK14  BANK15
      Params:         0       7       0       0       0       0       0       0       0       0       0       0       0       0       0       0       0
      Locals:         0       2       0       0       0       0       0       0       0       0       0       0       0       0       0       0       0
      Temps:          0       0       0       0       0       0       0       0       0       0       0       0       0       0       0       0       0
      Totals:         0       9       0       0       0       0       0       0       0       0       0       0       0       0       0       0       0
Total ram usage:        9 bytes
 Hardware stack levels used:    1
 Hardware stack levels required when called:    8
 This function calls:
		_delay_ms
		_iic_send_byte
		_iic_start
		_iic_stop
 This function is called by:
		_calib_data_init_diff_pr
		_calib_data_init_pr
		___set_short_diff_calib
		___set_short_pr_calib
 This function uses a non-reentrant model


 *************** function _delay_ms *****************
 Defined at:
		line 97 in file "src/soc/clock.c"
 Parameters:    Size  Location     Type
  dly             2    4[BANK0 ] unsigned int 
 Auto vars:     Size  Location     Type
		None
 Return value:  Size  Location     Type
                  1    wreg      void 
 Registers used:
		wreg, status,2, status,0, cstack
 Tracked objects:
		On entry : 
		On exit  : 
		Unchanged: 
 Data sizes:     COMRAM   BANK0   BANK1   BANK2   BANK3   BANK4   BANK5   BANK6   BANK7   BANK8   BANK9  BANK10  BANK11  BANK12  BANK13  BANK14  BANK15
      Params:         0       2       0       0       0       0       0       0       0       0       0       0       0       0       0       0       0
      Locals:         0       0       0       0       0       0       0       0       0       0       0       0       0       0       0       0       0
      Temps:          0       0       0       0       0       0       0       0       0       0       0       0       0       0       0       0       0
      Totals:         0       2       0       0       0       0       0       0       0       0       0       0       0       0       0       0       0
Total ram usage:        2 bytes
 Hardware stack levels used:    1
 Hardware stack levels required when called:    5
 This function calls:
		_delay_us
 This function is called by:
		_key_waite_release
		_at24c02_write_n_byte
		_key_polling
 This function uses a non-reentrant model


 *************** function _at24c02_read_n_byte *****************
 Defined at:
		line 45 in file "src/driver/ex_eeprom.c"
 Parameters:    Size  Location     Type
  pAt24c02        2    8[BANK0 ] PTR struct .
		 -> at24c02Ch0(11), at24c02Ch1(11), NULL(0), 
  addr            1   10[BANK0 ] unsigned char 
  buf             2   11[BANK0 ] PTR unsigned char 
		 -> prCalibTabDef(162), diff_prCalibTabDef(162), 
  len             2   13[BANK0 ] unsigned int 
 Auto vars:     Size  Location     Type
  i               2   19[BANK0 ] unsigned int 
 Return value:  Size  Location     Type
                  1    wreg      void 
 Registers used:
		wreg, fsr2l, fsr2h, status,2, status,0, pclath, tosl, cstack
 Tracked objects:
		On entry : 
		On exit  : 
		Unchanged: 
 Data sizes:     COMRAM   BANK0   BANK1   BANK2   BANK3   BANK4   BANK5   BANK6   BANK7   BANK8   BANK9  BANK10  BANK11  BANK12  BANK13  BANK14  BANK15
      Params:         0       7       0       0       0       0       0       0       0       0       0       0       0       0       0       0       0
      Locals:         0       2       0       0       0       0       0       0       0       0       0       0       0       0       0       0       0
      Temps:          0       4       0       0       0       0       0       0       0       0       0       0       0       0       0       0       0
      Totals:         0      13       0       0       0       0       0       0       0       0       0       0       0       0       0       0       0
Total ram usage:       13 bytes
 Hardware stack levels used:    1
 Hardware stack levels required when called:    8
 This function calls:
		_iic_received_byte_if_ack
		_iic_send_byte
		_iic_start
		_iic_stop
 This function is called by:
		_calib_data_init_diff_pr
		_calib_data_init_pr
 This function uses a non-reentrant model


 *************** function _iic_start *****************
 Defined at:
		line 19 in file "src/driver/i2c.c"
 Parameters:    Size  Location     Type
		None
 Auto vars:     Size  Location     Type
		None
 Return value:  Size  Location     Type
                  1    wreg      void 
 Registers used:
		wreg, status,2, status,0, cstack
 Tracked objects:
		On entry : 
		On exit  : 
		Unchanged: 
 Data sizes:     COMRAM   BANK0   BANK1   BANK2   BANK3   BANK4   BANK5   BANK6   BANK7   BANK8   BANK9  BANK10  BANK11  BANK12  BANK13  BANK14  BANK15
      Params:         0       0       0       0       0       0       0       0       0       0       0       0       0       0       0       0       0
      Locals:         0       0       0       0       0       0       0       0       0       0       0       0       0       0       0       0       0
      Temps:          0       0       0       0       0       0       0       0       0       0       0       0       0       0       0       0       0
      Totals:         0       0       0       0       0       0       0       0       0       0       0       0       0       0       0       0       0
Total ram usage:        0 bytes
 Hardware stack levels used:    1
 Hardware stack levels required when called:    5
 This function calls:
		_delay_us
 This function is called by:
		_ads1115_init
		_at24c02_init
		_pcf8574_init
		_ads1115_write_reg
		_ads1115_read_reg
		_at24c02_write_n_byte
		_at24c02_read_n_byte
		_pcf8574_write_singel
		_ad421_write_via_pcf8574
 This function uses a non-reentrant model


 *************** function _iic_send_byte *****************
 Defined at:
		line 84 in file "src/driver/i2c.c"
 Parameters:    Size  Location     Type
  x               1    wreg     unsigned char 
 Auto vars:     Size  Location     Type
  x               1    4[BANK0 ] unsigned char 
  i               1    5[BANK0 ] unsigned char 
 Return value:  Size  Location     Type
                  1    wreg      unsigned char 
 Registers used:
		wreg, status,2, status,0, cstack
 Tracked objects:
		On entry : 
		On exit  : 
		Unchanged: 
 Data sizes:     COMRAM   BANK0   BANK1   BANK2   BANK3   BANK4   BANK5   BANK6   BANK7   BANK8   BANK9  BANK10  BANK11  BANK12  BANK13  BANK14  BANK15
      Params:         0       0       0       0       0       0       0       0       0       0       0       0       0       0       0       0       0
      Locals:         0       2       0       0       0       0       0       0       0       0       0       0       0       0       0       0       0
      Temps:          0       0       0       0       0       0       0       0       0       0       0       0       0       0       0       0       0
      Totals:         0       2       0       0       0       0       0       0       0       0       0       0       0       0       0       0       0
Total ram usage:        2 bytes
 Hardware stack levels used:    1
 Hardware stack levels required when called:    7
 This function calls:
		_delay_us
		_iic_waite_ack
 This function is called by:
		_ads1115_init
		_at24c02_init
		_pcf8574_init
		_ads1115_write_reg
		_ads1115_read_reg
		_at24c02_write_n_byte
		_at24c02_read_n_byte
		_pcf8574_write_singel
		_ad421_write_via_pcf8574
 This function uses a non-reentrant model


 *************** function _iic_waite_ack *****************
 Defined at:
		line 63 in file "src/driver/i2c.c"
 Parameters:    Size  Location     Type
		None
 Auto vars:     Size  Location     Type
  timeout         1   31[COMRAM] unsigned char 
 Return value:  Size  Location     Type
                  1    wreg      unsigned char 
 Registers used:
		wreg, status,2, status,0, cstack
 Tracked objects:
		On entry : 
		On exit  : 
		Unchanged: 
 Data sizes:     COMRAM   BANK0   BANK1   BANK2   BANK3   BANK4   BANK5   BANK6   BANK7   BANK8   BANK9  BANK10  BANK11  BANK12  BANK13  BANK14  BANK15
      Params:         0       0       0       0       0       0       0       0       0       0       0       0       0       0       0       0       0
      Locals:         1       0       0       0       0       0       0       0       0       0       0       0       0       0       0       0       0
      Temps:          0       0       0       0       0       0       0       0       0       0       0       0       0       0       0       0       0
      Totals:         1       0       0       0       0       0       0       0       0       0       0       0       0       0       0       0       0
Total ram usage:        1 bytes
 Hardware stack levels used:    1
 Hardware stack levels required when called:    6
 This function calls:
		_delay_us
		_iic_stop
 This function is called by:
		_ads1115_init
		_at24c02_init
		_iic_send_byte
		_pcf8574_init
 This function uses a non-reentrant model


 *************** function _iic_stop *****************
 Defined at:
		line 33 in file "src/driver/i2c.c"
 Parameters:    Size  Location     Type
		None
 Auto vars:     Size  Location     Type
		None
 Return value:  Size  Location     Type
                  1    wreg      void 
 Registers used:
		wreg, status,2, status,0, cstack
 Tracked objects:
		On entry : 
		On exit  : 
		Unchanged: 
 Data sizes:     COMRAM   BANK0   BANK1   BANK2   BANK3   BANK4   BANK5   BANK6   BANK7   BANK8   BANK9  BANK10  BANK11  BANK12  BANK13  BANK14  BANK15
      Params:         0       0       0       0       0       0       0       0       0       0       0       0       0       0       0       0       0
      Locals:         0       0       0       0       0       0       0       0       0       0       0       0       0       0       0       0       0
      Temps:          0       0       0       0       0       0       0       0       0       0       0       0       0       0       0       0       0
      Totals:         0       0       0       0       0       0       0       0       0       0       0       0       0       0       0       0       0
Total ram usage:        0 bytes
 Hardware stack levels used:    1
 Hardware stack levels required when called:    5
 This function calls:
		_delay_us
 This function is called by:
		_ads1115_init
		_at24c02_init
		_iic_waite_ack
		_pcf8574_init
		_ads1115_write_reg
		_ads1115_read_reg
		_at24c02_write_n_byte
		_at24c02_read_n_byte
		_pcf8574_write_singel
		_ad421_write_via_pcf8574
 This function uses a non-reentrant model


 *************** function _iic_received_byte_if_ack *****************
 Defined at:
		line 130 in file "src/driver/i2c.c"
 Parameters:    Size  Location     Type
  ack             1    wreg     unsigned char 
 Auto vars:     Size  Location     Type
  ack             1    6[BANK0 ] unsigned char 
  ret             1    7[BANK0 ] unsigned char 
 Return value:  Size  Location     Type
                  1    wreg      unsigned char 
 Registers used:
		wreg, status,2, status,0, cstack
 Tracked objects:
		On entry : 
		On exit  : 
		Unchanged: 
 Data sizes:     COMRAM   BANK0   BANK1   BANK2   BANK3   BANK4   BANK5   BANK6   BANK7   BANK8   BANK9  BANK10  BANK11  BANK12  BANK13  BANK14  BANK15
      Params:         0       0       0       0       0       0       0       0       0       0       0       0       0       0       0       0       0
      Locals:         0       2       0       0       0       0       0       0       0       0       0       0       0       0       0       0       0
      Temps:          0       0       0       0       0       0       0       0       0       0       0       0       0       0       0       0       0
      Totals:         0       2       0       0       0       0       0       0       0       0       0       0       0       0       0       0       0
Total ram usage:        2 bytes
 Hardware stack levels used:    1
 Hardware stack levels required when called:    6
 This function calls:
		_iic_received_byte
		_iic_send_ack
 This function is called by:
		_ads1115_init
		_at24c02_init
		_pcf8574_init
		_ads1115_read_reg
		_at24c02_read_n_byte
 This function uses a non-reentrant model


 *************** function _iic_send_ack *****************
 Defined at:
		line 45 in file "src/driver/i2c.c"
 Parameters:    Size  Location     Type
  ack             1    wreg     char 
 Auto vars:     Size  Location     Type
  ack             1   31[COMRAM] char 
 Return value:  Size  Location     Type
                  1    wreg      void 
 Registers used:
		wreg, status,2, status,0, cstack
 Tracked objects:
		On entry : 
		On exit  : 
		Unchanged: 
 Data sizes:     COMRAM   BANK0   BANK1   BANK2   BANK3   BANK4   BANK5   BANK6   BANK7   BANK8   BANK9  BANK10  BANK11  BANK12  BANK13  BANK14  BANK15
      Params:         0       0       0       0       0       0       0       0       0       0       0       0       0       0       0       0       0
      Locals:         1       0       0       0       0       0       0       0       0       0       0       0       0       0       0       0       0
      Temps:          0       0       0       0       0       0       0       0       0       0       0       0       0       0       0       0       0
      Totals:         1       0       0       0       0       0       0       0       0       0       0       0       0       0       0       0       0
Total ram usage:        1 bytes
 Hardware stack levels used:    1
 Hardware stack levels required when called:    5
 This function calls:
		_delay_us
 This function is called by:
		_iic_received_byte_if_ack
 This function uses a non-reentrant model


 *************** function _iic_received_byte *****************
 Defined at:
		line 110 in file "src/driver/i2c.c"
 Parameters:    Size  Location     Type
		None
 Auto vars:     Size  Location     Type
  i               1    5[BANK0 ] unsigned char 
  ret             1    4[BANK0 ] unsigned char 
 Return value:  Size  Location     Type
                  1    wreg      unsigned char 
 Registers used:
		wreg, status,2, status,0, cstack
 Tracked objects:
		On entry : 
		On exit  : 
		Unchanged: 
 Data sizes:     COMRAM   BANK0   BANK1   BANK2   BANK3   BANK4   BANK5   BANK6   BANK7   BANK8   BANK9  BANK10  BANK11  BANK12  BANK13  BANK14  BANK15
      Params:         0       0       0       0       0       0       0       0       0       0       0       0       0       0       0       0       0
      Locals:         0       2       0       0       0       0       0       0       0       0       0       0       0       0       0       0       0
      Temps:          0       0       0       0       0       0       0       0       0       0       0       0       0       0       0       0       0
      Totals:         0       2       0       0       0       0       0       0       0       0       0       0       0       0       0       0       0
Total ram usage:        2 bytes
 Hardware stack levels used:    1
 Hardware stack levels required when called:    5
 This function calls:
		_delay_us
 This function is called by:
		_iic_received_byte_if_ack
 This function uses a non-reentrant model


 *************** function _delay_us *****************
 Defined at:
		line 82 in file "src/soc/clock.c"
 Parameters:    Size  Location     Type
  dly             2    0[BANK0 ] unsigned int 
 Auto vars:     Size  Location     Type
  i               2    2[BANK0 ] unsigned int 
 Return value:  Size  Location     Type
                  1    wreg      void 
 Registers used:
		wreg, status,2, status,0
 Tracked objects:
		On entry : 
		On exit  : 
		Unchanged: 
 Data sizes:     COMRAM   BANK0   BANK1   BANK2   BANK3   BANK4   BANK5   BANK6   BANK7   BANK8   BANK9  BANK10  BANK11  BANK12  BANK13  BANK14  BANK15
      Params:         0       2       0       0       0       0       0       0       0       0       0       0       0       0       0       0       0
      Locals:         0       2       0       0       0       0       0       0       0       0       0       0       0       0       0       0       0
      Temps:          0       0       0       0       0       0       0       0       0       0       0       0       0       0       0       0       0
      Totals:         0       4       0       0       0       0       0       0       0       0       0       0       0       0       0       0       0
Total ram usage:        4 bytes
 Hardware stack levels used:    1
 Hardware stack levels required when called:    4
 This function calls:
		Nothing
 This function is called by:
		_iic_start
		_iic_stop
		_iic_send_ack
		_iic_waite_ack
		_iic_send_byte
		_iic_received_byte
		_in_adc_start_and_read
		_delay_ms
 This function uses a non-reentrant model


 *************** function _at24c02_init *****************
 Defined at:
		line 13 in file "src/driver/ex_eeprom.c"
 Parameters:    Size  Location     Type
  pAt24c02        2    0[BANK0 ] PTR struct .
		 -> at24c02Ch0(11), at24c02Ch1(11), NULL(0), 
  slv             1    2[BANK0 ] unsigned char 
 Auto vars:     Size  Location     Type
		None
 Return value:  Size  Location     Type
                  1    wreg      void 
 Registers used:
		wreg, fsr2l, fsr2h, status,2, status,0
 Tracked objects:
		On entry : 
		On exit  : 
		Unchanged: 
 Data sizes:     COMRAM   BANK0   BANK1   BANK2   BANK3   BANK4   BANK5   BANK6   BANK7   BANK8   BANK9  BANK10  BANK11  BANK12  BANK13  BANK14  BANK15
      Params:         0       3       0       0       0       0       0       0       0       0       0       0       0       0       0       0       0
      Locals:         0       0       0       0       0       0       0       0       0       0       0       0       0       0       0       0       0
      Temps:          0       0       0       0       0       0       0       0       0       0       0       0       0       0       0       0       0
      Totals:         0       3       0       0       0       0       0       0       0       0       0       0       0       0       0       0       0
Total ram usage:        3 bytes
 Hardware stack levels used:    1
 Hardware stack levels required when called:    4
 This function calls:
		Nothing
 This function is called by:
		_calib_data_init_diff_pr
		_calib_data_init_pr
		_at24c02_init_all_chip
 This function uses a non-reentrant model


 *************** function _ads1115_init_all_chip *****************
 Defined at:
		line 112 in file "src/driver/ads1115.c"
 Parameters:    Size  Location     Type
		None
 Auto vars:     Size  Location     Type
		None
 Return value:  Size  Location     Type
                  1    wreg      void 
 Registers used:
		wreg, fsr2l, fsr2h, status,2, status,0, cstack
 Tracked objects:
		On entry : 
		On exit  : 
		Unchanged: 
 Data sizes:     COMRAM   BANK0   BANK1   BANK2   BANK3   BANK4   BANK5   BANK6   BANK7   BANK8   BANK9  BANK10  BANK11  BANK12  BANK13  BANK14  BANK15
      Params:         0       0       0       0       0       0       0       0       0       0       0       0       0       0       0       0       0
      Locals:         0       0       0       0       0       0       0       0       0       0       0       0       0       0       0       0       0
      Temps:          0       0       0       0       0       0       0       0       0       0       0       0       0       0       0       0       0
      Totals:         0       0       0       0       0       0       0       0       0       0       0       0       0       0       0       0       0
Total ram usage:        0 bytes
 Hardware stack levels used:    1
 Hardware stack levels required when called:    5
 This function calls:
		_ads1115_init
 This function is called by:
		_main
 This function uses a non-reentrant model


 *************** function _ads1115_init *****************
 Defined at:
		line 5 in file "src/driver/ads1115.c"
 Parameters:    Size  Location     Type
  pAds1115        2    0[BANK0 ] PTR struct .
		 -> ads1115Chip1(16), ads1115Chip0(16), NULL(0), 
  slvaddr         1    2[BANK0 ] unsigned char 
 Auto vars:     Size  Location     Type
		None
 Return value:  Size  Location     Type
                  1    wreg      void 
 Registers used:
		wreg, fsr2l, fsr2h, status,2, status,0
 Tracked objects:
		On entry : 
		On exit  : 
		Unchanged: 
 Data sizes:     COMRAM   BANK0   BANK1   BANK2   BANK3   BANK4   BANK5   BANK6   BANK7   BANK8   BANK9  BANK10  BANK11  BANK12  BANK13  BANK14  BANK15
      Params:         0       3       0       0       0       0       0       0       0       0       0       0       0       0       0       0       0
      Locals:         0       0       0       0       0       0       0       0       0       0       0       0       0       0       0       0       0
      Temps:          0       0       0       0       0       0       0       0       0       0       0       0       0       0       0       0       0
      Totals:         0       3       0       0       0       0       0       0       0       0       0       0       0       0       0       0       0
Total ram usage:        3 bytes
 Hardware stack levels used:    1
 Hardware stack levels required when called:    4
 This function calls:
		Nothing
 This function is called by:
		_ads1115_init_all_chip
 This function uses a non-reentrant model


 *************** function _handler_interrupt_low *****************
 Defined at:
		line 38 in file "src/soc/int.c"
 Parameters:    Size  Location     Type
		None
 Auto vars:     Size  Location     Type
		None
 Return value:  Size  Location     Type
                  1    wreg      void 
 Registers used:
		wreg, status,2, status,0, cstack
 Tracked objects:
		On entry : 
		On exit  : 
		Unchanged: 
 Data sizes:     COMRAM   BANK0   BANK1   BANK2   BANK3   BANK4   BANK5   BANK6   BANK7   BANK8   BANK9  BANK10  BANK11  BANK12  BANK13  BANK14  BANK15
      Params:         0       0       0       0       0       0       0       0       0       0       0       0       0       0       0       0       0
      Locals:         0       0       0       0       0       0       0       0       0       0       0       0       0       0       0       0       0
      Temps:         17       0       0       0       0       0       0       0       0       0       0       0       0       0       0       0       0
      Totals:        17       0       0       0       0       0       0       0       0       0       0       0       0       0       0       0       0
Total ram usage:       17 bytes
 Hardware stack levels used:    1
 Hardware stack levels required when called:    3
 This function calls:
		_rtc_alrm_irq_hook
		_sys_ticker_irq_hook
 This function is called by:
		Interrupt level 1
 This function uses a non-reentrant model


 *************** function _sys_ticker_irq_hook *****************
 Defined at:
		line 40 in file "src/soc/ticker.c"
 Parameters:    Size  Location     Type
		None
 Auto vars:     Size  Location     Type
		None
 Return value:  Size  Location     Type
                  1    wreg      void 
 Registers used:
		wreg, status,2, status,0
 Tracked objects:
		On entry : 
		On exit  : 
		Unchanged: 
 Data sizes:     COMRAM   BANK0   BANK1   BANK2   BANK3   BANK4   BANK5   BANK6   BANK7   BANK8   BANK9  BANK10  BANK11  BANK12  BANK13  BANK14  BANK15
      Params:         0       0       0       0       0       0       0       0       0       0       0       0       0       0       0       0       0
      Locals:         0       0       0       0       0       0       0       0       0       0       0       0       0       0       0       0       0
      Temps:          0       0       0       0       0       0       0       0       0       0       0       0       0       0       0       0       0
      Totals:         0       0       0       0       0       0       0       0       0       0       0       0       0       0       0       0       0
Total ram usage:        0 bytes
 Hardware stack levels used:    1
 Hardware stack levels required when called:    2
 This function calls:
		Nothing
 This function is called by:
		_handler_interrupt_low
 This function uses a non-reentrant model


 *************** function _rtc_alrm_irq_hook *****************
 Defined at:
		line 103 in file "src/soc/rtc.c"
 Parameters:    Size  Location     Type
		None
 Auto vars:     Size  Location     Type
		None
 Return value:  Size  Location     Type
                  1    wreg      void 
 Registers used:
		None
 Tracked objects:
		On entry : 
		On exit  : 
		Unchanged: 
 Data sizes:     COMRAM   BANK0   BANK1   BANK2   BANK3   BANK4   BANK5   BANK6   BANK7   BANK8   BANK9  BANK10  BANK11  BANK12  BANK13  BANK14  BANK15
      Params:         0       0       0       0       0       0       0       0       0       0       0       0       0       0       0       0       0
      Locals:         0       0       0       0       0       0       0       0       0       0       0       0       0       0       0       0       0
      Temps:          0       0       0       0       0       0       0       0       0       0       0       0       0       0       0       0       0
      Totals:         0       0       0       0       0       0       0       0       0       0       0       0       0       0       0       0       0
Total ram usage:        0 bytes
 Hardware stack levels used:    1
 Hardware stack levels required when called:    2
 This function calls:
		Nothing
 This function is called by:
		_handler_interrupt_low
 This function uses a non-reentrant model


 *************** function _handler_interrupt_hight *****************
 Defined at:
		line 9 in file "src/soc/int.c"
 Parameters:    Size  Location     Type
		None
 Auto vars:     Size  Location     Type
		None
 Return value:  Size  Location     Type
                  1    wreg      void 
 Registers used:
		wreg, status,2, status,0, cstack
 Tracked objects:
		On entry : 
		On exit  : 
		Unchanged: 
 Data sizes:     COMRAM   BANK0   BANK1   BANK2   BANK3   BANK4   BANK5   BANK6   BANK7   BANK8   BANK9  BANK10  BANK11  BANK12  BANK13  BANK14  BANK15
      Params:         0       0       0       0       0       0       0       0       0       0       0       0       0       0       0       0       0
      Locals:         0       0       0       0       0       0       0       0       0       0       0       0       0       0       0       0       0
      Temps:         14       0       0       0       0       0       0       0       0       0       0       0       0       0       0       0       0
      Totals:        14       0       0       0       0       0       0       0       0       0       0       0       0       0       0       0       0
Total ram usage:       14 bytes
 Hardware stack levels used:    1
 Hardware stack levels required when called:    1
 This function calls:
		i2_rtc_alrm_irq_hook
		i2_sys_ticker_irq_hook
 This function is called by:
		Interrupt level 2
 This function uses a non-reentrant model


 *************** function i2_sys_ticker_irq_hook *****************
 Defined at:
		line 40 in file "src/soc/ticker.c"
 Parameters:    Size  Location     Type
		None
 Auto vars:     Size  Location     Type
		None
 Return value:  Size  Location     Type
                  1    wreg      void 
 Registers used:
		wreg, status,2, status,0
 Tracked objects:
		On entry : 
		On exit  : 
		Unchanged: 
 Data sizes:     COMRAM   BANK0   BANK1   BANK2   BANK3   BANK4   BANK5   BANK6   BANK7   BANK8   BANK9  BANK10  BANK11  BANK12  BANK13  BANK14  BANK15
      Params:         0       0       0       0       0       0       0       0       0       0       0       0       0       0       0       0       0
      Locals:         0       0       0       0       0       0       0       0       0       0       0       0       0       0       0       0       0
      Temps:          0       0       0       0       0       0       0       0       0       0       0       0       0       0       0       0       0
      Totals:         0       0       0       0       0       0       0       0       0       0       0       0       0       0       0       0       0
Total ram usage:        0 bytes
 Hardware stack levels used:    1
 This function calls:
		Nothing
 This function is called by:
		_handler_interrupt_hight
 This function uses a non-reentrant model


 *************** function i2_rtc_alrm_irq_hook *****************
 Defined at:
		line 103 in file "src/soc/rtc.c"
 Parameters:    Size  Location     Type
		None
 Auto vars:     Size  Location     Type
		None
 Return value:  Size  Location     Type
                  1    wreg      void 
 Registers used:
		None
 Tracked objects:
		On entry : 
		On exit  : 
		Unchanged: 
 Data sizes:     COMRAM   BANK0   BANK1   BANK2   BANK3   BANK4   BANK5   BANK6   BANK7   BANK8   BANK9  BANK10  BANK11  BANK12  BANK13  BANK14  BANK15
      Params:         0       0       0       0       0       0       0       0       0       0       0       0       0       0       0       0       0
      Locals:         0       0       0       0       0       0       0       0       0       0       0       0       0       0       0       0       0
      Temps:          0       0       0       0       0       0       0       0       0       0       0       0       0       0       0       0       0
      Totals:         0       0       0       0       0       0       0       0       0       0       0       0       0       0       0       0       0
Total ram usage:        0 bytes
 Hardware stack levels used:    1
 This function calls:
		Nothing
 This function is called by:
		_handler_interrupt_hight
 This function uses a non-reentrant model



MODULE INFORMATION

Module		Function		Class		Link	Load	Size
C:\Program Files (x86)\Microchip\xc8\v1.41\sources\common\lwdiv.c
		___lwdiv       		CODE           	868C	0000	121

C:\Program Files (x86)\Microchip\xc8\v1.41\sources\common\lwdiv.c estimated size: 121

C:\Program Files (x86)\Microchip\xc8\v1.41\sources\common\awdiv.c
		___awdiv       		CODE           	7188	0000	191

C:\Program Files (x86)\Microchip\xc8\v1.41\sources\common\awdiv.c estimated size: 191

C:\Program Files (x86)\Microchip\xc8\v1.41\sources\common\fltol.c
		___fltol       		CODE           	5CF4	0000	269

C:\Program Files (x86)\Microchip\xc8\v1.41\sources\common\fltol.c estimated size: 269

src/soc/rtc.c
		_rtc_init      		CODE           	9960	0000	63
		_rtcc_reg_wr_disable		CODE           	A3D0	0000	13
		_rtc_set       		CODE           	73BC	0000	185
		_rtc_alrm_irq_hook		CODE           	A3F4	0000	3
		_rtcc_reg_wr_enable		CODE           	A3C4	0000	13

src/soc/rtc.c estimated size: 277

src/driver/i2c.c
		_iic_waite_ack 		CODE           	9494	0000	89
		_iic_send_ack  		CODE           	95EA	0000	83
		_iic_send_byte 		CODE           	87F0	0000	117
		_iic_start     		CODE           	9B6E	0000	57
		_iic_received_byte		CODE           	8F76	0000	101
		_iic_received_byte_if_ack		CODE           	A188	0000	33
		_iic_stop      		CODE           	9C80	0000	55

src/driver/i2c.c estimated size: 535

C:\Program Files (x86)\Microchip\xc8\v1.41\sources\common\lldiv.c
		___lldiv       		CODE           	7246	0000	189

C:\Program Files (x86)\Microchip\xc8\v1.41\sources\common\lldiv.c estimated size: 189

C:\Program Files (x86)\Microchip\xc8\v1.41\sources\common\aldiv.c
		___aldiv       		CODE           	5AC4	0000	283

C:\Program Files (x86)\Microchip\xc8\v1.41\sources\common\aldiv.c estimated size: 283

C:\Program Files (x86)\Microchip\xc8\v1.41\sources\common\flge.c
		___flge        		CODE           	4728	0000	401

C:\Program Files (x86)\Microchip\xc8\v1.41\sources\common\flge.c estimated size: 401

C:\Program Files (x86)\Microchip\xc8\v1.41\sources\common\Umul16.c
		___wmul        		CODE           	9C4A	0000	55

C:\Program Files (x86)\Microchip\xc8\v1.41\sources\common\Umul16.c estimated size: 55

C:\Program Files (x86)\Microchip\xc8\v1.41\sources\common\sprcadd.c
		___fladd       		CODE           	1168	0000	1193

C:\Program Files (x86)\Microchip\xc8\v1.41\sources\common\sprcadd.c estimated size: 1193

src/driver/key.c
		_key_polling   		CODE           	921E	0000	93

src/driver/key.c estimated size: 93

src/soc/clock.c
		_delay_us      		CODE           	9BA6	0000	57
		_delay_ms      		CODE           	A04A	0000	39

src/soc/clock.c estimated size: 96

src/api/sample.c
		_sample_call_cal_in_soc		CODE           	A124	0000	35
		_sample_call_cal_pr		CODE           	A1A8	0000	31
		_sample_all_power_off		CODE           	A39A	0000	15
		___x_sample_fifo		CODE           	4B94	0000	363
		_sample_diff_pr_fliter		CODE           	8420	0000	127
		_sample_call_cal_diff_pr		CODE           	A1C6	0000	31
		_sample_function_enable_fi_in_rtc		CODE           	6A8E	0000	207
		_sample_variable_init		CODE           	94EC	0000	87
		_sample_call_in_ticker		CODE           	972A	0000	79
		_sample_all_power_on		CODE           	A346	0000	21
		_sample_in_soc_adc_ch		CODE           	4CFE	0000	359
		_sample_diff_pr_chip_fast		CODE           	3E50	0000	467
		___x_sample_fliter		CODE           	2DDA	0000	709
		_sample_pr_chip_fast		CODE           	4A2A	0000	363

src/api/sample.c estimated size: 2894

src/driver/m_flash.c
		_m_flash_unlock		CODE           	A254	0000	27
		_m_flash_read  		CODE           	849E	0000	127
		_m_flash_erase 		CODE           	938A	0000	91
		_m_flash_write 		CODE           	53B8	0000	311

src/driver/m_flash.c estimated size: 556

src/depend/crc16.c
		_crc_sum       		CODE           	7B12	0000	159
		_crc_append    		CODE           	8F12	0000	101
		_crc_verify    		CODE           	828A	0000	141

src/depend/crc16.c estimated size: 401

C:\Program Files (x86)\Microchip\xc8\v1.41\sources\common\flneg.c
		___flneg       		CODE           	9B36	0000	57

C:\Program Files (x86)\Microchip\xc8\v1.41\sources\common\flneg.c estimated size: 57

C:\Program Files (x86)\Microchip\xc8\v1.41\sources\common\lbdiv.c
		___lbdiv       		CODE           	9778	0000	79

C:\Program Files (x86)\Microchip\xc8\v1.41\sources\common\lbdiv.c estimated size: 79

C:\Program Files (x86)\Microchip\xc8\v1.41\sources\common\Umul32.c
		___lmul        		CODE           	877A	0000	119

C:\Program Files (x86)\Microchip\xc8\v1.41\sources\common\Umul32.c estimated size: 119

src/soc/soc.c
		_soc_init      		CODE           	A36C	0000	17

src/soc/soc.c estimated size: 17

src/soc/ticker.c
		_sys_ticker_irq_hook		CODE           	A21C	0000	29
		_sys_ticker_init		CODE           	A37C	0000	17
		_ticker_dly    		CODE           	9BDE	0000	55

src/soc/ticker.c estimated size: 101

src/driver/lcd.c
		_lcd_show_string_l0		CODE           	8A28	0000	111
		_lcd_show_string_l1		CODE           	989E	0000	67
		_lcd_disp_unit_2nd_m		CODE           	8DE2	0000	103
		_lcd_bl_on     		CODE           	A3E8	0000	11
		_lcd_disp_unit_temperature		CODE           	8D16	0000	103
		_lcd_disp_unit_1st_m		CODE           	9596	0000	85
		_lcd_show_string		CODE           	8A96	0000	111
		_lcd_disp_all  		CODE           	9E9A	0000	49
		_lcd_disp_logo 		CODE           	9E6A	0000	49
		_lcd_disp_refresh		CODE           	9100	0000	99
		_lcd_disp_chr_loc_0		CODE           	816C	0000	145
		_lcd_disp_chr_loc_1		CODE           	80DC	0000	145
		_lcd_disp_get_code		CODE           	9162	0000	95
		_lcd_disp_unit_2nd_m3		CODE           	8316	0000	139
		_lcd_disp_chr_loc_2		CODE           	804C	0000	145
		_lcd_disp_unit_mpa		CODE           	8D7C	0000	103
		_lcd_disp_chr_loc_3		CODE           	7FBC	0000	145
		_lcd_disp_chr_loc_4		CODE           	7F2C	0000	145
		_lcd_disp_chr_loc_5		CODE           	7E9C	0000	145
		_lcd_disp_level		CODE           	943C	0000	89
		_lcd_disp_chr_loc_6		CODE           	7E0C	0000	145
		_lcd_disp_chr_loc_7		CODE           	7D7C	0000	145
		_lcd_disp_unit_1st_m3		CODE           	8E48	0000	103
		_lcd_set_com_seg		CODE           	6DB4	0000	201
		_lcd_config    		CODE           	9A8E	0000	57
		_lcd_show_dp   		CODE           	8B04	0000	109
		_lcd_show_chr  		CODE           	7CE4	0000	153
		_lcd_disp_level_bar		CODE           	0C96	0000	1235
		_lcd_disp_dp_loc_0		CODE           	9E3A	0000	49
		_lcd_disp_unit_t		CODE           	9542	0000	85
		_lcd_disp_dp_loc_1		CODE           	9E0A	0000	49
		_lcd_disp_dp_loc_2		CODE           	9DDA	0000	49
		_lcd_disp_dp_loc_4		CODE           	9DAA	0000	49
		_lcd_disp_dp_loc_5		CODE           	9D7A	0000	49
		_lcd_disp_dp_loc_6		CODE           	9D4A	0000	49
		_lcd_init      		CODE           	A38C	0000	15

src/driver/lcd.c estimated size: 4626

src/driver/ex_eeprom.c
		_at24c02_init  		CODE           	8598	0000	125
		_at24c02_read_n_byte		CODE           	4570	0000	441
		_at24c02_write_n_byte		CODE           	5BDE	0000	279

src/driver/ex_eeprom.c estimated size: 845

src/depend/m_string.c
		_m_mem_cpy     		CODE           	8B70	0000	109
		_m_mem_set     		CODE           	A146	0000	35
		_m_mem_cpy_len 		CODE           	97C6	0000	79
		_m_int16_2_str_4		CODE           	4FC8	0000	351
		_m_int8_2_hex  		CODE           	92D6	0000	91

src/depend/m_string.c estimated size: 665

shared
		_HexTable      		MEDIUMCONST    	EF06	0000	18
		i2_rtc_alrm_irq_hook		CODE           	A3F6	0000	3
		_LCDDigitalIndexTable		MEDIUMCONST    	EEB1	0000	44
		_LCDDigitalTable		MEDIUMCONST    	EEDC	0000	43
		_defultSystemData		MEDIUMCONST    	F23F	0000	241
		_hKel          		MEDIUMCONST    	EF17	0000	405
		_hKcy          		MEDIUMCONST    	F0AB	0000	405
		i2_sys_ticker_irq_hook		CODE           	A238	0000	29
		__initialization		CODE           	7888	0000	151
		_auchCRCHi     		MEDIUMCONST    	EDB1	0000	257
		_auchCRCLo     		MEDIUMCONST    	ECB1	0000	257
		_flashTestbuf  		MEDIUMCONST    	F32F	0000	66

shared estimated size: 1919

C:\Program Files (x86)\Microchip\xc8\v1.41\sources\common\lwmod.c
		___lwmod       		CODE           	903C	0000	99

C:\Program Files (x86)\Microchip\xc8\v1.41\sources\common\lwmod.c estimated size: 99

C:\Program Files (x86)\Microchip\xc8\v1.41\sources\common\awmod.c
		___awmod       		CODE           	79D0	0000	163

C:\Program Files (x86)\Microchip\xc8\v1.41\sources\common\awmod.c estimated size: 163

src/api/ui.c
		_ui_disp_menu  		CODE           	768A	0000	175
		_ui_disp_menu_calib_pr_adj		CODE           	67F8	0000	225
		_ui_disp_adj_xfixed_pt		CODE           	6CEC	0000	201
		_ui_disp_menu_home		CODE           	382A	0000	581
		_ui_disp_clear_num_dp		CODE           	9330	0000	91
		_ui_disp_adj_xfloat_pt		CODE           	35D0	0000	603
		_ui_disp_menu_calib_diff_adj		CODE           	6522	0000	253
		_ui_disp_xfloat_pt		CODE           	5282	0000	311
		_ui_disp_menu_d_adj		CODE           	9ECA	0000	47
		_ui_disp_menu_h_adj		CODE           	89B8	0000	113
		___x_arrange_str		CODE           	91C0	0000	95
		___int32_2_mflot32		CODE           	6010	0000	263
		_ui_disp_menu_density_adj		CODE           	9EF8	0000	47
		_ui_disp_menu_warn_t_adj		CODE           	561E	0000	305
		_ui_disp_adj_xfixed_pt_dp		CODE           	69B6	0000	217
		___mflot32_2_int32		CODE           	77E0	0000	169
		_ui_disp_menu_warn_v_adj		CODE           	6716	0000	227
		_ui_disp_menu_bar_full_adj		CODE           	9D1A	0000	49
		_ui_disp_menu_pos_adj		CODE           	81FC	0000	143
		_ui_disp_menu_psw_adj		CODE           	9FA8	0000	43
		_ui_disp_start_cs600		CODE           	7C4C	0000	153
		_ui_disp_menu_bzero_adj		CODE           	9F26	0000	47
		_ui_disp_menu_epr_calib_adj		CODE           	7008	0000	195
		_ui_disp_menu_poly_c_adj		CODE           	8EAE	0000	101
		_ui_disp_menu_work_mode_adj		CODE           	8704	0000	119
		_ui_disp_menu_epr_ilp_scale_adj		CODE           	6F44	0000	197
		_ui_disp_menu_pose_size		CODE           	9FD2	0000	43

src/api/ui.c estimated size: 5013

src/api/data.c
		_cal_diff_p_to_h		CODE           	5F08	0000	265
		_calib_data_init_diff_pr		CODE           	5878	0000	299
		_data_sys_cal_v1		CODE           	3A6E	0000	517
		_data_sys_cal_v2		CODE           	4E64	0000	357
		_cal_diff_hight_to_vol_h		CODE           	3358	0000	633
		_m_interp1_float_fast		CODE           	1F2A	0000	1065
		_calib_data_set_default_pr		CODE           	41F0	0000	453
		_m_interp1_cal_p_t		CODE           	1AB6	0000	1141
		_m_interp1_cal_p_v		CODE           	0784	0000	1299
		_cal_pt100_temperature_in		CODE           	A332	0000	21
		_cal_additional_pressute		CODE           	A200	0000	29
		_cal_diff_press		CODE           	59A2	0000	291
		_data_init_all 		CODE           	A3A8	0000	15
		_data_sys_init 		CODE           	48B8	0000	371
		_cal_diff_hight_level		CODE           	309E	0000	699
		_calib_data_set_default_diff_pr		CODE           	3C72	0000	479
		_calib_data_init_pr		CODE           	574E	0000	299
		_cal_diff_hight_to_vol_v		CODE           	00DC	0000	1705
		_cal_pt100_temperature_ex		CODE           	A31E	0000	21
		_cal_press     		CODE           	851C	0000	125

src/api/data.c estimated size: 10084

C:\Program Files (x86)\Microchip\xc8\v1.41\sources\common\xxtofl.c
		___xxtofl      		CODE           	4022	0000	463

C:\Program Files (x86)\Microchip\xc8\v1.41\sources\common\xxtofl.c estimated size: 463

src/driver/in_adc.c
		_in_adc_start_and_read		CODE           	8BDC	0000	107
		_in_adc_init   		CODE           	A0B8	0000	37

src/driver/in_adc.c estimated size: 144

C:\Program Files (x86)\Microchip\xc8\v1.41\sources\common\sprcmul.c
		___flmul       		CODE           	1610	0000	1191

C:\Program Files (x86)\Microchip\xc8\v1.41\sources\common\sprcmul.c estimated size: 1191

src/app/event.c
		_event_process_time_out		CODE           	A3F2	0000	3
		_event_process_rtc		CODE           	9F7E	0000	43
		_event_process_ticker		CODE           	A3DC	0000	13

src/app/event.c estimated size: 59

C:\Program Files (x86)\Microchip\xc8\v1.41\sources\common\sprcdiv.c
		___fldiv       		CODE           	2352	0000	961

C:\Program Files (x86)\Microchip\xc8\v1.41\sources\common\sprcdiv.c estimated size: 961

src/soc/int.c
		_handler_interrupt_low		CODE           	0018	0000	193
		_handler_interrupt_hight		CODE           	0008	0000	207

src/soc/int.c estimated size: 400

src/driver/ads1115.c
		_ads1115_init_all_chip		CODE           	9A54	0000	59
		_ads1115_init  		CODE           	792C	0000	165
		_ads1115_set_data_rate		CODE           	A024	0000	39
		_ads1115_read_reg		CODE           	43B4	0000	445
		_ads1115_write_reg		CODE           	6422	0000	257
		_ads1115_start_conversion		CODE           	9F54	0000	43
		_ads1115_read_conversion		CODE           	9814	0000	71
		_ads1115_set_pga		CODE           	A0DC	0000	37
		_ads1115_set_mux		CODE           	A100	0000	37

src/driver/ads1115.c estimated size: 1153

src/app/main.c
		_main          		CODE           	8FDA	0000	99

src/app/main.c estimated size: 99

src/api/key_menu.c
		___up_base_zero_adj		CODE           	A2DC	0000	23
		___enter_menu_poly_coeffic		CODE           	96DC	0000	79
		_key_waite_release		CODE           	963C	0000	81
		___set_long_bar_level_scale		CODE           	9920	0000	65
		___set_short_poly_coefic		CODE           	8948	0000	113
		___up_density_adj		CODE           	A2C6	0000	23
		_key_adj_value_float		CODE           	68D8	0000	223
		___enter_menu_warn_value		CODE           	70CA	0000	191
		___down_pr_calib		CODE           	A070	0000	37
		___down_home_adj		CODE           	A1E4	0000	29
		_key_process_set		CODE           	7BB0	0000	157
		___up_warn_type_adj		CODE           	98E0	0000	65
		___up_pr_calib_adj		CODE           	9AC6	0000	57
		___sys_data_save_write_flash		CODE           	621A	0000	261
		___up_epr_calib_adj		CODE           	9CB6	0000	53
		___set_long_work_mode		CODE           	A168	0000	33
		___exit_menu_to_home_unsave		CODE           	999E	0000	63
		___set_short_warn_type		CODE           	83A0	0000	129
		___up_home_adj 		CODE           	9FFC	0000	41
		___enter_menu_set_d		CODE           	8CAE	0000	105
		___up_epr_ilp_scale_adj		CODE           	A2B0	0000	23
		___enter_menu_set_base_zero		CODE           	8614	0000	121
		___up_pose_size_adj		CODE           	8864	0000	115
		___exp_10      		CODE           	927A	0000	93
		___enter_menu_set_h		CODE           	8C46	0000	105
		___enter_menu_set_pose_size		CODE           	9A18	0000	61
		___set_short_pose_size		CODE           	5E00	0000	265
		___up_adj_bar_level_scale		CODE           	A2F2	0000	23
		___set_short_warn_value		CODE           	6C24	0000	201
		___up_diff_calib_adj		CODE           	9AFE	0000	57
		___enter_menu_calib_press		CODE           	6116	0000	261
		_key_process_set_down_long		CODE           	6B5C	0000	201
		___enter_menu_bar_scale		CODE           	99DC	0000	61
		___enter_menu_epr_calib		CODE           	7738	0000	169
		___set_short_epr_ilp_scale		CODE           	752C	0000	177
		___up_warn_value_adj		CODE           	A26E	0000	23
		___enter_menu_work_mode		CODE           	A35A	0000	19
		___up_poly_coefic_adj		CODE           	A29A	0000	23
		_key_adj_value_fixed		CODE           	661E	0000	249
		_key_process   		CODE           	7A72	0000	161
		___set_long_base_zero		CODE           	93E4	0000	89
		_key_shift_loc 		CODE           	985A	0000	69
		___set_long_density		CODE           	968C	0000	81
		___up_adj_work_mode		CODE           	9C14	0000	55
		___enter_menu_calib_press_diff		CODE           	631E	0000	261
		___down_dpr_calib		CODE           	A094	0000	37
		___enter_menu_password		CODE           	A308	0000	23
		___down_pose_size		CODE           	9CEA	0000	49
		_key_process_down		CODE           	5126	0000	349
		___enter_menu_epr_ilp_scale		CODE           	7302	0000	187
		_key_process_set_long		CODE           	7474	0000	185
		___up_psw_adj  		CODE           	A284	0000	23
		___enter_menu_warn_type		CODE           	909E	0000	99
		___set_short_epr_param		CODE           	54EE	0000	305
		___set_short_pr_calib		CODE           	2A7C	0000	863
		_key_process_up		CODE           	75DC	0000	175
		___enter_menu_set_density		CODE           	88D6	0000	115
		___set_short_diff_calib		CODE           	2712	0000	875

src/api/key_menu.c estimated size: 8076

